Archive member included to satisfy reference by file (symbol)

C:/Program Files (x86)/Arm GNU Toolchain arm-none-eabi/13.2 Rel1/bin/../lib/gcc/arm-none-eabi/13.2.1/thumb/v7+fp/hard\libgcc.a(_aeabi_ldivmod.o)
                              ./rzt/fsp/src/r_sci_uart/r_sci_uart.o (__aeabi_ldivmod)
C:/Program Files (x86)/Arm GNU Toolchain arm-none-eabi/13.2 Rel1/bin/../lib/gcc/arm-none-eabi/13.2.1/thumb/v7+fp/hard\libgcc.a(_aeabi_uldivmod.o)
                              ./rzt/fsp/src/bsp/mcu/all/bsp_delay.o (__aeabi_uldivmod)
C:/Program Files (x86)/Arm GNU Toolchain arm-none-eabi/13.2 Rel1/bin/../lib/gcc/arm-none-eabi/13.2.1/thumb/v7+fp/hard\libgcc.a(_udivmoddi4.o)
                              C:/Program Files (x86)/Arm GNU Toolchain arm-none-eabi/13.2 Rel1/bin/../lib/gcc/arm-none-eabi/13.2.1/thumb/v7+fp/hard\libgcc.a(_aeabi_ldivmod.o) (__udivmoddi4)
C:/Program Files (x86)/Arm GNU Toolchain arm-none-eabi/13.2 Rel1/bin/../lib/gcc/arm-none-eabi/13.2.1/thumb/v7+fp/hard\libgcc.a(_dvmd_tls.o)
                              C:/Program Files (x86)/Arm GNU Toolchain arm-none-eabi/13.2 Rel1/bin/../lib/gcc/arm-none-eabi/13.2.1/thumb/v7+fp/hard\libgcc.a(_aeabi_ldivmod.o) (__aeabi_ldiv0)
C:/Program Files (x86)/Arm GNU Toolchain arm-none-eabi/13.2 Rel1/bin/../lib/gcc/arm-none-eabi/13.2.1/thumb/v7+fp/hard\libg_nano.a(libc_a-assert.o)
                              ./src/hal_entry.o (__assert_func)
C:/Program Files (x86)/Arm GNU Toolchain arm-none-eabi/13.2 Rel1/bin/../lib/gcc/arm-none-eabi/13.2.1/thumb/v7+fp/hard\libg_nano.a(libc_a-malloc.o)
                              ./rzt/fsp/src/bsp/mcu/all/bsp_common.o (malloc)
C:/Program Files (x86)/Arm GNU Toolchain arm-none-eabi/13.2 Rel1/bin/../lib/gcc/arm-none-eabi/13.2.1/thumb/v7+fp/hard\libg_nano.a(libc_a-mallocr.o)
                              C:/Program Files (x86)/Arm GNU Toolchain arm-none-eabi/13.2 Rel1/bin/../lib/gcc/arm-none-eabi/13.2.1/thumb/v7+fp/hard\libg_nano.a(libc_a-malloc.o) (_malloc_r)
C:/Program Files (x86)/Arm GNU Toolchain arm-none-eabi/13.2 Rel1/bin/../lib/gcc/arm-none-eabi/13.2.1/thumb/v7+fp/hard\libg_nano.a(libc_a-mlock.o)
                              C:/Program Files (x86)/Arm GNU Toolchain arm-none-eabi/13.2 Rel1/bin/../lib/gcc/arm-none-eabi/13.2.1/thumb/v7+fp/hard\libg_nano.a(libc_a-mallocr.o) (__malloc_lock)
C:/Program Files (x86)/Arm GNU Toolchain arm-none-eabi/13.2 Rel1/bin/../lib/gcc/arm-none-eabi/13.2.1/thumb/v7+fp/hard\libg_nano.a(libc_a-nano-vfprintf_float.o)
                              (_printf_float)
C:/Program Files (x86)/Arm GNU Toolchain arm-none-eabi/13.2 Rel1/bin/../lib/gcc/arm-none-eabi/13.2.1/thumb/v7+fp/hard\libg_nano.a(libc_a-nano-vfprintf_i.o)
                              C:/Program Files (x86)/Arm GNU Toolchain arm-none-eabi/13.2 Rel1/bin/../lib/gcc/arm-none-eabi/13.2.1/thumb/v7+fp/hard\libg_nano.a(libc_a-nano-vfprintf_float.o) (_printf_common)
C:/Program Files (x86)/Arm GNU Toolchain arm-none-eabi/13.2 Rel1/bin/../lib/gcc/arm-none-eabi/13.2.1/thumb/v7+fp/hard\libg_nano.a(libc_a-nano-vfscanf_float.o)
                              (_scanf_float)
C:/Program Files (x86)/Arm GNU Toolchain arm-none-eabi/13.2 Rel1/bin/../lib/gcc/arm-none-eabi/13.2.1/thumb/v7+fp/hard\libg_nano.a(libc_a-fprintf.o)
                              C:/Program Files (x86)/Arm GNU Toolchain arm-none-eabi/13.2 Rel1/bin/../lib/gcc/arm-none-eabi/13.2.1/thumb/v7+fp/hard\libg_nano.a(libc_a-assert.o) (fiprintf)
C:/Program Files (x86)/Arm GNU Toolchain arm-none-eabi/13.2 Rel1/bin/../lib/gcc/arm-none-eabi/13.2.1/thumb/v7+fp/hard\libg_nano.a(libc_a-printf.o)
                              ./src/hal_entry.o (printf)
C:/Program Files (x86)/Arm GNU Toolchain arm-none-eabi/13.2 Rel1/bin/../lib/gcc/arm-none-eabi/13.2.1/thumb/v7+fp/hard\libg_nano.a(libc_a-putchar.o)
                              ./coremark/core_main.o (putchar)
C:/Program Files (x86)/Arm GNU Toolchain arm-none-eabi/13.2 Rel1/bin/../lib/gcc/arm-none-eabi/13.2.1/thumb/v7+fp/hard\libg_nano.a(libc_a-puts.o)
                              ./src/hal_entry.o (puts)
C:/Program Files (x86)/Arm GNU Toolchain arm-none-eabi/13.2 Rel1/bin/../lib/gcc/arm-none-eabi/13.2.1/thumb/v7+fp/hard\libg_nano.a(libc_a-sprintf.o)
                              C:/Program Files (x86)/Arm GNU Toolchain arm-none-eabi/13.2 Rel1/bin/../lib/gcc/arm-none-eabi/13.2.1/thumb/v7+fp/hard\libg_nano.a(libc_a-nano-vfscanf_float.o) (sprintf)
C:/Program Files (x86)/Arm GNU Toolchain arm-none-eabi/13.2 Rel1/bin/../lib/gcc/arm-none-eabi/13.2.1/thumb/v7+fp/hard\libg_nano.a(libc_a-wbuf.o)
                              C:/Program Files (x86)/Arm GNU Toolchain arm-none-eabi/13.2 Rel1/bin/../lib/gcc/arm-none-eabi/13.2.1/thumb/v7+fp/hard\libg_nano.a(libc_a-puts.o) (__swbuf_r)
C:/Program Files (x86)/Arm GNU Toolchain arm-none-eabi/13.2 Rel1/bin/../lib/gcc/arm-none-eabi/13.2.1/thumb/v7+fp/hard\libg_nano.a(libc_a-wsetup.o)
                              C:/Program Files (x86)/Arm GNU Toolchain arm-none-eabi/13.2 Rel1/bin/../lib/gcc/arm-none-eabi/13.2.1/thumb/v7+fp/hard\libg_nano.a(libc_a-puts.o) (__swsetup_r)
C:/Program Files (x86)/Arm GNU Toolchain arm-none-eabi/13.2 Rel1/bin/../lib/gcc/arm-none-eabi/13.2.1/thumb/v7+fp/hard\libg_nano.a(libc_a-memset.o)
                              ./coremark/core_state.o (memset)
C:/Program Files (x86)/Arm GNU Toolchain arm-none-eabi/13.2 Rel1/bin/../lib/gcc/arm-none-eabi/13.2.1/thumb/v7+fp/hard\libg_nano.a(libc_a-clock.o)
                              ./coremark/core_portme.o (clock)
C:/Program Files (x86)/Arm GNU Toolchain arm-none-eabi/13.2 Rel1/bin/../lib/gcc/arm-none-eabi/13.2.1/thumb/v7+fp/hard\libg_nano.a(libc_a-localeconv.o)
                              C:/Program Files (x86)/Arm GNU Toolchain arm-none-eabi/13.2 Rel1/bin/../lib/gcc/arm-none-eabi/13.2.1/thumb/v7+fp/hard\libg_nano.a(libc_a-nano-vfprintf_float.o) (_localeconv_r)
C:/Program Files (x86)/Arm GNU Toolchain arm-none-eabi/13.2 Rel1/bin/../lib/gcc/arm-none-eabi/13.2.1/thumb/v7+fp/hard\libg_nano.a(libc_a-impure.o)
                              C:/Program Files (x86)/Arm GNU Toolchain arm-none-eabi/13.2 Rel1/bin/../lib/gcc/arm-none-eabi/13.2.1/thumb/v7+fp/hard\libg_nano.a(libc_a-assert.o) (_impure_ptr)
C:/Program Files (x86)/Arm GNU Toolchain arm-none-eabi/13.2 Rel1/bin/../lib/gcc/arm-none-eabi/13.2.1/thumb/v7+fp/hard\libg_nano.a(libc_a-sbrkr.o)
                              C:/Program Files (x86)/Arm GNU Toolchain arm-none-eabi/13.2 Rel1/bin/../lib/gcc/arm-none-eabi/13.2.1/thumb/v7+fp/hard\libg_nano.a(libc_a-mallocr.o) (_sbrk_r)
C:/Program Files (x86)/Arm GNU Toolchain arm-none-eabi/13.2 Rel1/bin/../lib/gcc/arm-none-eabi/13.2.1/thumb/v7+fp/hard\libg_nano.a(libc_a-timesr.o)
                              C:/Program Files (x86)/Arm GNU Toolchain arm-none-eabi/13.2 Rel1/bin/../lib/gcc/arm-none-eabi/13.2.1/thumb/v7+fp/hard\libg_nano.a(libc_a-clock.o) (_times_r)
C:/Program Files (x86)/Arm GNU Toolchain arm-none-eabi/13.2 Rel1/bin/../lib/gcc/arm-none-eabi/13.2.1/thumb/v7+fp/hard\libg_nano.a(libc_a-errno.o)
                              ./src/syscall.o (__errno)
C:/Program Files (x86)/Arm GNU Toolchain arm-none-eabi/13.2 Rel1/bin/../lib/gcc/arm-none-eabi/13.2.1/thumb/v7+fp/hard\libg_nano.a(libc_a-lock.o)
                              C:/Program Files (x86)/Arm GNU Toolchain arm-none-eabi/13.2 Rel1/bin/../lib/gcc/arm-none-eabi/13.2.1/thumb/v7+fp/hard\libg_nano.a(libc_a-mlock.o) (__retarget_lock_acquire_recursive)
C:/Program Files (x86)/Arm GNU Toolchain arm-none-eabi/13.2 Rel1/bin/../lib/gcc/arm-none-eabi/13.2.1/thumb/v7+fp/hard\libg_nano.a(libc_a-memchr-stub.o)
                              C:/Program Files (x86)/Arm GNU Toolchain arm-none-eabi/13.2 Rel1/bin/../lib/gcc/arm-none-eabi/13.2.1/thumb/v7+fp/hard\libg_nano.a(libc_a-nano-vfprintf_i.o) (memchr)
C:/Program Files (x86)/Arm GNU Toolchain arm-none-eabi/13.2 Rel1/bin/../lib/gcc/arm-none-eabi/13.2.1/thumb/v7+fp/hard\libg_nano.a(libc_a-memcpy-stub.o)
                              ./rzt/fsp/src/r_shared_memory/r_shared_memory.o (memcpy)
C:/Program Files (x86)/Arm GNU Toolchain arm-none-eabi/13.2 Rel1/bin/../lib/gcc/arm-none-eabi/13.2.1/thumb/v7+fp/hard\libg_nano.a(libc_a-strlen.o)
                              C:/Program Files (x86)/Arm GNU Toolchain arm-none-eabi/13.2 Rel1/bin/../lib/gcc/arm-none-eabi/13.2.1/thumb/v7+fp/hard\libg_nano.a(libc_a-nano-vfprintf_float.o) (strlen)
C:/Program Files (x86)/Arm GNU Toolchain arm-none-eabi/13.2 Rel1/bin/../lib/gcc/arm-none-eabi/13.2.1/thumb/v7+fp/hard\libg_nano.a(libm_a-sf_nan.o)
                              C:/Program Files (x86)/Arm GNU Toolchain arm-none-eabi/13.2 Rel1/bin/../lib/gcc/arm-none-eabi/13.2.1/thumb/v7+fp/hard\libg_nano.a(libc_a-nano-vfscanf_float.o) (nanf)
C:/Program Files (x86)/Arm GNU Toolchain arm-none-eabi/13.2 Rel1/bin/../lib/gcc/arm-none-eabi/13.2.1/thumb/v7+fp/hard\libg_nano.a(libc_a-abort.o)
                              C:/Program Files (x86)/Arm GNU Toolchain arm-none-eabi/13.2 Rel1/bin/../lib/gcc/arm-none-eabi/13.2.1/thumb/v7+fp/hard\libg_nano.a(libc_a-assert.o) (abort)
C:/Program Files (x86)/Arm GNU Toolchain arm-none-eabi/13.2 Rel1/bin/../lib/gcc/arm-none-eabi/13.2.1/thumb/v7+fp/hard\libg_nano.a(libc_a-dtoa.o)
                              C:/Program Files (x86)/Arm GNU Toolchain arm-none-eabi/13.2 Rel1/bin/../lib/gcc/arm-none-eabi/13.2.1/thumb/v7+fp/hard\libg_nano.a(libc_a-nano-vfprintf_float.o) (_dtoa_r)
C:/Program Files (x86)/Arm GNU Toolchain arm-none-eabi/13.2 Rel1/bin/../lib/gcc/arm-none-eabi/13.2.1/thumb/v7+fp/hard\libg_nano.a(libc_a-freer.o)
                              C:/Program Files (x86)/Arm GNU Toolchain arm-none-eabi/13.2 Rel1/bin/../lib/gcc/arm-none-eabi/13.2.1/thumb/v7+fp/hard\libg_nano.a(libc_a-malloc.o) (_free_r)
C:/Program Files (x86)/Arm GNU Toolchain arm-none-eabi/13.2 Rel1/bin/../lib/gcc/arm-none-eabi/13.2.1/thumb/v7+fp/hard\libg_nano.a(libc_a-mprec.o)
                              C:/Program Files (x86)/Arm GNU Toolchain arm-none-eabi/13.2 Rel1/bin/../lib/gcc/arm-none-eabi/13.2.1/thumb/v7+fp/hard\libg_nano.a(libc_a-dtoa.o) (_Balloc)
C:/Program Files (x86)/Arm GNU Toolchain arm-none-eabi/13.2 Rel1/bin/../lib/gcc/arm-none-eabi/13.2.1/thumb/v7+fp/hard\libg_nano.a(libc_a-strtod.o)
                              C:/Program Files (x86)/Arm GNU Toolchain arm-none-eabi/13.2 Rel1/bin/../lib/gcc/arm-none-eabi/13.2.1/thumb/v7+fp/hard\libg_nano.a(libc_a-nano-vfscanf_float.o) (_strtod_r)
C:/Program Files (x86)/Arm GNU Toolchain arm-none-eabi/13.2 Rel1/bin/../lib/gcc/arm-none-eabi/13.2.1/thumb/v7+fp/hard\libg_nano.a(libc_a-strtol.o)
                              C:/Program Files (x86)/Arm GNU Toolchain arm-none-eabi/13.2 Rel1/bin/../lib/gcc/arm-none-eabi/13.2.1/thumb/v7+fp/hard\libg_nano.a(libc_a-nano-vfscanf_float.o) (_strtol_r)
C:/Program Files (x86)/Arm GNU Toolchain arm-none-eabi/13.2 Rel1/bin/../lib/gcc/arm-none-eabi/13.2.1/thumb/v7+fp/hard\libg_nano.a(libc_a-ctype_.o)
                              C:/Program Files (x86)/Arm GNU Toolchain arm-none-eabi/13.2 Rel1/bin/../lib/gcc/arm-none-eabi/13.2.1/thumb/v7+fp/hard\libg_nano.a(libc_a-strtol.o) (_ctype_)
C:/Program Files (x86)/Arm GNU Toolchain arm-none-eabi/13.2 Rel1/bin/../lib/gcc/arm-none-eabi/13.2.1/thumb/v7+fp/hard\libg_nano.a(libc_a-nano-svfprintf.o)
                              C:/Program Files (x86)/Arm GNU Toolchain arm-none-eabi/13.2 Rel1/bin/../lib/gcc/arm-none-eabi/13.2.1/thumb/v7+fp/hard\libg_nano.a(libc_a-sprintf.o) (_svfprintf_r)
C:/Program Files (x86)/Arm GNU Toolchain arm-none-eabi/13.2 Rel1/bin/../lib/gcc/arm-none-eabi/13.2.1/thumb/v7+fp/hard\libg_nano.a(libc_a-nano-vfprintf.o)
                              C:/Program Files (x86)/Arm GNU Toolchain arm-none-eabi/13.2 Rel1/bin/../lib/gcc/arm-none-eabi/13.2.1/thumb/v7+fp/hard\libg_nano.a(libc_a-fprintf.o) (_vfprintf_r)
C:/Program Files (x86)/Arm GNU Toolchain arm-none-eabi/13.2 Rel1/bin/../lib/gcc/arm-none-eabi/13.2.1/thumb/v7+fp/hard\libg_nano.a(libc_a-fflush.o)
                              C:/Program Files (x86)/Arm GNU Toolchain arm-none-eabi/13.2 Rel1/bin/../lib/gcc/arm-none-eabi/13.2.1/thumb/v7+fp/hard\libg_nano.a(libc_a-wbuf.o) (_fflush_r)
C:/Program Files (x86)/Arm GNU Toolchain arm-none-eabi/13.2 Rel1/bin/../lib/gcc/arm-none-eabi/13.2.1/thumb/v7+fp/hard\libg_nano.a(libc_a-findfp.o)
                              C:/Program Files (x86)/Arm GNU Toolchain arm-none-eabi/13.2 Rel1/bin/../lib/gcc/arm-none-eabi/13.2.1/thumb/v7+fp/hard\libg_nano.a(libc_a-fflush.o) (__sglue)
C:/Program Files (x86)/Arm GNU Toolchain arm-none-eabi/13.2 Rel1/bin/../lib/gcc/arm-none-eabi/13.2.1/thumb/v7+fp/hard\libg_nano.a(libc_a-fvwrite.o)
                              C:/Program Files (x86)/Arm GNU Toolchain arm-none-eabi/13.2 Rel1/bin/../lib/gcc/arm-none-eabi/13.2.1/thumb/v7+fp/hard\libg_nano.a(libc_a-nano-vfprintf.o) (__sfvwrite_r)
C:/Program Files (x86)/Arm GNU Toolchain arm-none-eabi/13.2 Rel1/bin/../lib/gcc/arm-none-eabi/13.2.1/thumb/v7+fp/hard\libg_nano.a(libc_a-fwalk.o)
                              C:/Program Files (x86)/Arm GNU Toolchain arm-none-eabi/13.2 Rel1/bin/../lib/gcc/arm-none-eabi/13.2.1/thumb/v7+fp/hard\libg_nano.a(libc_a-fflush.o) (_fwalk_sglue)
C:/Program Files (x86)/Arm GNU Toolchain arm-none-eabi/13.2 Rel1/bin/../lib/gcc/arm-none-eabi/13.2.1/thumb/v7+fp/hard\libg_nano.a(libc_a-makebuf.o)
                              C:/Program Files (x86)/Arm GNU Toolchain arm-none-eabi/13.2 Rel1/bin/../lib/gcc/arm-none-eabi/13.2.1/thumb/v7+fp/hard\libg_nano.a(libc_a-wsetup.o) (__smakebuf_r)
C:/Program Files (x86)/Arm GNU Toolchain arm-none-eabi/13.2 Rel1/bin/../lib/gcc/arm-none-eabi/13.2.1/thumb/v7+fp/hard\libg_nano.a(libc_a-putc.o)
                              C:/Program Files (x86)/Arm GNU Toolchain arm-none-eabi/13.2 Rel1/bin/../lib/gcc/arm-none-eabi/13.2.1/thumb/v7+fp/hard\libg_nano.a(libc_a-putchar.o) (_putc_r)
C:/Program Files (x86)/Arm GNU Toolchain arm-none-eabi/13.2 Rel1/bin/../lib/gcc/arm-none-eabi/13.2.1/thumb/v7+fp/hard\libg_nano.a(libc_a-stdio.o)
                              C:/Program Files (x86)/Arm GNU Toolchain arm-none-eabi/13.2 Rel1/bin/../lib/gcc/arm-none-eabi/13.2.1/thumb/v7+fp/hard\libg_nano.a(libc_a-findfp.o) (__sread)
C:/Program Files (x86)/Arm GNU Toolchain arm-none-eabi/13.2 Rel1/bin/../lib/gcc/arm-none-eabi/13.2.1/thumb/v7+fp/hard\libg_nano.a(libc_a-memmove.o)
                              C:/Program Files (x86)/Arm GNU Toolchain arm-none-eabi/13.2 Rel1/bin/../lib/gcc/arm-none-eabi/13.2.1/thumb/v7+fp/hard\libg_nano.a(libc_a-nano-svfprintf.o) (memmove)
C:/Program Files (x86)/Arm GNU Toolchain arm-none-eabi/13.2 Rel1/bin/../lib/gcc/arm-none-eabi/13.2.1/thumb/v7+fp/hard\libg_nano.a(libc_a-strncmp.o)
                              C:/Program Files (x86)/Arm GNU Toolchain arm-none-eabi/13.2 Rel1/bin/../lib/gcc/arm-none-eabi/13.2.1/thumb/v7+fp/hard\libg_nano.a(libc_a-strtod.o) (strncmp)
C:/Program Files (x86)/Arm GNU Toolchain arm-none-eabi/13.2 Rel1/bin/../lib/gcc/arm-none-eabi/13.2.1/thumb/v7+fp/hard\libg_nano.a(libc_a-signal.o)
                              C:/Program Files (x86)/Arm GNU Toolchain arm-none-eabi/13.2 Rel1/bin/../lib/gcc/arm-none-eabi/13.2.1/thumb/v7+fp/hard\libg_nano.a(libc_a-abort.o) (raise)
C:/Program Files (x86)/Arm GNU Toolchain arm-none-eabi/13.2 Rel1/bin/../lib/gcc/arm-none-eabi/13.2.1/thumb/v7+fp/hard\libg_nano.a(libc_a-locale.o)
                              C:/Program Files (x86)/Arm GNU Toolchain arm-none-eabi/13.2 Rel1/bin/../lib/gcc/arm-none-eabi/13.2.1/thumb/v7+fp/hard\libg_nano.a(libc_a-localeconv.o) (__global_locale)
C:/Program Files (x86)/Arm GNU Toolchain arm-none-eabi/13.2 Rel1/bin/../lib/gcc/arm-none-eabi/13.2.1/thumb/v7+fp/hard\libg_nano.a(libc_a-closer.o)
                              C:/Program Files (x86)/Arm GNU Toolchain arm-none-eabi/13.2 Rel1/bin/../lib/gcc/arm-none-eabi/13.2.1/thumb/v7+fp/hard\libg_nano.a(libc_a-stdio.o) (_close_r)
C:/Program Files (x86)/Arm GNU Toolchain arm-none-eabi/13.2 Rel1/bin/../lib/gcc/arm-none-eabi/13.2.1/thumb/v7+fp/hard\libg_nano.a(libc_a-reent.o)
                              C:/Program Files (x86)/Arm GNU Toolchain arm-none-eabi/13.2 Rel1/bin/../lib/gcc/arm-none-eabi/13.2.1/thumb/v7+fp/hard\libg_nano.a(libc_a-sbrkr.o) (errno)
C:/Program Files (x86)/Arm GNU Toolchain arm-none-eabi/13.2 Rel1/bin/../lib/gcc/arm-none-eabi/13.2.1/thumb/v7+fp/hard\libg_nano.a(libc_a-fstatr.o)
                              C:/Program Files (x86)/Arm GNU Toolchain arm-none-eabi/13.2 Rel1/bin/../lib/gcc/arm-none-eabi/13.2.1/thumb/v7+fp/hard\libg_nano.a(libc_a-makebuf.o) (_fstat_r)
C:/Program Files (x86)/Arm GNU Toolchain arm-none-eabi/13.2 Rel1/bin/../lib/gcc/arm-none-eabi/13.2.1/thumb/v7+fp/hard\libg_nano.a(libc_a-isattyr.o)
                              C:/Program Files (x86)/Arm GNU Toolchain arm-none-eabi/13.2 Rel1/bin/../lib/gcc/arm-none-eabi/13.2.1/thumb/v7+fp/hard\libg_nano.a(libc_a-makebuf.o) (_isatty_r)
C:/Program Files (x86)/Arm GNU Toolchain arm-none-eabi/13.2 Rel1/bin/../lib/gcc/arm-none-eabi/13.2.1/thumb/v7+fp/hard\libg_nano.a(libc_a-lseekr.o)
                              C:/Program Files (x86)/Arm GNU Toolchain arm-none-eabi/13.2 Rel1/bin/../lib/gcc/arm-none-eabi/13.2.1/thumb/v7+fp/hard\libg_nano.a(libc_a-stdio.o) (_lseek_r)
C:/Program Files (x86)/Arm GNU Toolchain arm-none-eabi/13.2 Rel1/bin/../lib/gcc/arm-none-eabi/13.2.1/thumb/v7+fp/hard\libg_nano.a(libc_a-readr.o)
                              C:/Program Files (x86)/Arm GNU Toolchain arm-none-eabi/13.2 Rel1/bin/../lib/gcc/arm-none-eabi/13.2.1/thumb/v7+fp/hard\libg_nano.a(libc_a-stdio.o) (_read_r)
C:/Program Files (x86)/Arm GNU Toolchain arm-none-eabi/13.2 Rel1/bin/../lib/gcc/arm-none-eabi/13.2.1/thumb/v7+fp/hard\libg_nano.a(libc_a-signalr.o)
                              C:/Program Files (x86)/Arm GNU Toolchain arm-none-eabi/13.2 Rel1/bin/../lib/gcc/arm-none-eabi/13.2.1/thumb/v7+fp/hard\libg_nano.a(libc_a-signal.o) (_kill_r)
C:/Program Files (x86)/Arm GNU Toolchain arm-none-eabi/13.2 Rel1/bin/../lib/gcc/arm-none-eabi/13.2.1/thumb/v7+fp/hard\libg_nano.a(libc_a-writer.o)
                              C:/Program Files (x86)/Arm GNU Toolchain arm-none-eabi/13.2 Rel1/bin/../lib/gcc/arm-none-eabi/13.2.1/thumb/v7+fp/hard\libg_nano.a(libc_a-stdio.o) (_write_r)
C:/Program Files (x86)/Arm GNU Toolchain arm-none-eabi/13.2 Rel1/bin/../lib/gcc/arm-none-eabi/13.2.1/thumb/v7+fp/hard\libg_nano.a(libc_a-strcmp.o)
                              C:/Program Files (x86)/Arm GNU Toolchain arm-none-eabi/13.2 Rel1/bin/../lib/gcc/arm-none-eabi/13.2.1/thumb/v7+fp/hard\libg_nano.a(libc_a-locale.o) (strcmp)
C:/Program Files (x86)/Arm GNU Toolchain arm-none-eabi/13.2 Rel1/bin/../lib/gcc/arm-none-eabi/13.2.1/thumb/v7+fp/hard\libg_nano.a(libm_a-s_nan.o)
                              C:/Program Files (x86)/Arm GNU Toolchain arm-none-eabi/13.2 Rel1/bin/../lib/gcc/arm-none-eabi/13.2.1/thumb/v7+fp/hard\libg_nano.a(libc_a-strtod.o) (nan)
C:/Program Files (x86)/Arm GNU Toolchain arm-none-eabi/13.2 Rel1/bin/../lib/gcc/arm-none-eabi/13.2.1/thumb/v7+fp/hard\libg_nano.a(libc_a-callocr.o)
                              C:/Program Files (x86)/Arm GNU Toolchain arm-none-eabi/13.2 Rel1/bin/../lib/gcc/arm-none-eabi/13.2.1/thumb/v7+fp/hard\libg_nano.a(libc_a-mprec.o) (_calloc_r)
C:/Program Files (x86)/Arm GNU Toolchain arm-none-eabi/13.2 Rel1/bin/../lib/gcc/arm-none-eabi/13.2.1/thumb/v7+fp/hard\libg_nano.a(libc_a-gdtoa-gethex.o)
                              C:/Program Files (x86)/Arm GNU Toolchain arm-none-eabi/13.2 Rel1/bin/../lib/gcc/arm-none-eabi/13.2.1/thumb/v7+fp/hard\libg_nano.a(libc_a-strtod.o) (__gethex)
C:/Program Files (x86)/Arm GNU Toolchain arm-none-eabi/13.2 Rel1/bin/../lib/gcc/arm-none-eabi/13.2.1/thumb/v7+fp/hard\libg_nano.a(libc_a-gdtoa-hexnan.o)
                              C:/Program Files (x86)/Arm GNU Toolchain arm-none-eabi/13.2 Rel1/bin/../lib/gcc/arm-none-eabi/13.2.1/thumb/v7+fp/hard\libg_nano.a(libc_a-strtod.o) (__match)
C:/Program Files (x86)/Arm GNU Toolchain arm-none-eabi/13.2 Rel1/bin/../lib/gcc/arm-none-eabi/13.2.1/thumb/v7+fp/hard\libg_nano.a(libc_a-mbtowc_r.o)
                              C:/Program Files (x86)/Arm GNU Toolchain arm-none-eabi/13.2 Rel1/bin/../lib/gcc/arm-none-eabi/13.2.1/thumb/v7+fp/hard\libg_nano.a(libc_a-locale.o) (__ascii_mbtowc)
C:/Program Files (x86)/Arm GNU Toolchain arm-none-eabi/13.2 Rel1/bin/../lib/gcc/arm-none-eabi/13.2.1/thumb/v7+fp/hard\libg_nano.a(libc_a-reallocr.o)
                              C:/Program Files (x86)/Arm GNU Toolchain arm-none-eabi/13.2 Rel1/bin/../lib/gcc/arm-none-eabi/13.2.1/thumb/v7+fp/hard\libg_nano.a(libc_a-nano-svfprintf.o) (_realloc_r)
C:/Program Files (x86)/Arm GNU Toolchain arm-none-eabi/13.2 Rel1/bin/../lib/gcc/arm-none-eabi/13.2.1/thumb/v7+fp/hard\libg_nano.a(libc_a-wctomb_r.o)
                              C:/Program Files (x86)/Arm GNU Toolchain arm-none-eabi/13.2 Rel1/bin/../lib/gcc/arm-none-eabi/13.2.1/thumb/v7+fp/hard\libg_nano.a(libc_a-locale.o) (__ascii_wctomb)
C:/Program Files (x86)/Arm GNU Toolchain arm-none-eabi/13.2 Rel1/bin/../lib/gcc/arm-none-eabi/13.2.1/thumb/v7+fp/hard\libg_nano.a(libc_a-msizer.o)
                              C:/Program Files (x86)/Arm GNU Toolchain arm-none-eabi/13.2 Rel1/bin/../lib/gcc/arm-none-eabi/13.2.1/thumb/v7+fp/hard\libg_nano.a(libc_a-reallocr.o) (_malloc_usable_size_r)
C:/Program Files (x86)/Arm GNU Toolchain arm-none-eabi/13.2 Rel1/bin/../lib/gcc/arm-none-eabi/13.2.1/thumb/v7+fp/hard\libgcc.a(_udivsi3.o)
                              C:/Program Files (x86)/Arm GNU Toolchain arm-none-eabi/13.2 Rel1/bin/../lib/gcc/arm-none-eabi/13.2.1/thumb/v7+fp/hard\libg_nano.a(libc_a-dtoa.o) (__aeabi_uidiv)
C:/Program Files (x86)/Arm GNU Toolchain arm-none-eabi/13.2 Rel1/bin/../lib/gcc/arm-none-eabi/13.2.1/thumb/v7+fp/hard\libgcc.a(_divsi3.o)
                              C:/Program Files (x86)/Arm GNU Toolchain arm-none-eabi/13.2 Rel1/bin/../lib/gcc/arm-none-eabi/13.2.1/thumb/v7+fp/hard\libg_nano.a(libc_a-fvwrite.o) (__aeabi_idiv)
C:/Program Files (x86)/Arm GNU Toolchain arm-none-eabi/13.2 Rel1/bin/../lib/gcc/arm-none-eabi/13.2.1/thumb/v7+fp/hard\libgcc.a(_arm_addsubdf3.o)
                              C:/Program Files (x86)/Arm GNU Toolchain arm-none-eabi/13.2 Rel1/bin/../lib/gcc/arm-none-eabi/13.2.1/thumb/v7+fp/hard\libg_nano.a(libc_a-strtod.o) (__aeabi_l2d)
C:/Program Files (x86)/Arm GNU Toolchain arm-none-eabi/13.2 Rel1/bin/../lib/gcc/arm-none-eabi/13.2.1/thumb/v7+fp/hard\libgcc.a(_fixdfdi.o)
                              C:/Program Files (x86)/Arm GNU Toolchain arm-none-eabi/13.2 Rel1/bin/../lib/gcc/arm-none-eabi/13.2.1/thumb/v7+fp/hard\libg_nano.a(libc_a-strtod.o) (__aeabi_d2lz)
C:/Program Files (x86)/Arm GNU Toolchain arm-none-eabi/13.2 Rel1/bin/../lib/gcc/arm-none-eabi/13.2.1/thumb/v7+fp/hard\libgcc.a(_fixunsdfdi.o)
                              C:/Program Files (x86)/Arm GNU Toolchain arm-none-eabi/13.2 Rel1/bin/../lib/gcc/arm-none-eabi/13.2.1/thumb/v7+fp/hard\libgcc.a(_fixdfdi.o) (__aeabi_d2ulz)

Discarded input sections

 .text          0x00000000        0x0 ./src/hal_entry.o
 .data          0x00000000        0x0 ./src/hal_entry.o
 .bss           0x00000000        0x0 ./src/hal_entry.o
 .bss.transmit_buffer
                0x00000000      0x100 ./src/hal_entry.o
 .text          0x00000000        0x0 ./src/syscall.o
 .data          0x00000000        0x0 ./src/syscall.o
 .bss           0x00000000        0x0 ./src/syscall.o
 .text.initialise_monitor_handles
                0x00000000        0x4 ./src/syscall.o
 .text._write   0x00000000       0x1c ./src/syscall.o
 .text._open    0x00000000        0xc ./src/syscall.o
 .text._wait    0x00000000       0x14 ./src/syscall.o
 .text._unlink  0x00000000       0x14 ./src/syscall.o
 .text._stat    0x00000000        0xc ./src/syscall.o
 .text._link    0x00000000       0x14 ./src/syscall.o
 .text._fork    0x00000000       0x14 ./src/syscall.o
 .text._execve  0x00000000       0x14 ./src/syscall.o
 .data.environ  0x00000000        0x4 ./src/syscall.o
 .bss.__env     0x00000000        0x4 ./src/syscall.o
 .text          0x00000000        0x0 ./rzt_gen/common_data.o
 .data          0x00000000        0x0 ./rzt_gen/common_data.o
 .bss           0x00000000        0x0 ./rzt_gen/common_data.o
 .text.g_common_init
                0x00000000        0x4 ./rzt_gen/common_data.o
 .rodata.g_ioport
                0x00000000        0xc ./rzt_gen/common_data.o
 .text          0x00000000        0x0 ./rzt_gen/hal_data.o
 .data          0x00000000        0x0 ./rzt_gen/hal_data.o
 .bss           0x00000000        0x0 ./rzt_gen/hal_data.o
 .text.g_hal_init
                0x00000000        0x4 ./rzt_gen/hal_data.o
 .rodata.g_uart0
                0x00000000        0xc ./rzt_gen/hal_data.o
 .rodata.g_shared_memory0
                0x00000000        0xc ./rzt_gen/hal_data.o
 .text          0x00000000        0x0 ./rzt_gen/main.o
 .data          0x00000000        0x0 ./rzt_gen/main.o
 .bss           0x00000000        0x0 ./rzt_gen/main.o
 .text          0x00000000        0x0 ./rzt_gen/pin_data.o
 .data          0x00000000        0x0 ./rzt_gen/pin_data.o
 .bss           0x00000000        0x0 ./rzt_gen/pin_data.o
 .text          0x00000000        0x0 ./rzt_gen/vector_data.o
 .data          0x00000000        0x0 ./rzt_gen/vector_data.o
 .bss           0x00000000        0x0 ./rzt_gen/vector_data.o
 .text          0x00000000        0x0 ./rzt/fsp/src/r_shared_memory/r_shared_memory.o
 .data          0x00000000        0x0 ./rzt/fsp/src/r_shared_memory/r_shared_memory.o
 .bss           0x00000000        0x0 ./rzt/fsp/src/r_shared_memory/r_shared_memory.o
 .text.R_SHARED_MEMORY_CallbackSet
                0x00000000       0x10 ./rzt/fsp/src/r_shared_memory/r_shared_memory.o
 .text.R_SHARED_MEMORY_Close
                0x00000000       0x3c ./rzt/fsp/src/r_shared_memory/r_shared_memory.o
 .text.R_SHARED_MEMORY_Write
                0x00000000       0x88 ./rzt/fsp/src/r_shared_memory/r_shared_memory.o
 .rodata.g_shared_memory_on_shared_memory
                0x00000000       0x18 ./rzt/fsp/src/r_shared_memory/r_shared_memory.o
 .text          0x00000000        0x0 ./rzt/fsp/src/r_sci_uart/r_sci_uart.o
 .data          0x00000000        0x0 ./rzt/fsp/src/r_sci_uart/r_sci_uart.o
 .bss           0x00000000        0x0 ./rzt/fsp/src/r_sci_uart/r_sci_uart.o
 .text.R_SCI_UART_Read
                0x00000000        0xc ./rzt/fsp/src/r_sci_uart/r_sci_uart.o
 .text.R_SCI_UART_Write
                0x00000000       0x40 ./rzt/fsp/src/r_sci_uart/r_sci_uart.o
 .text.R_SCI_UART_CallbackSet
                0x00000000       0x10 ./rzt/fsp/src/r_sci_uart/r_sci_uart.o
 .text.R_SCI_UART_BaudSet
                0x00000000       0x58 ./rzt/fsp/src/r_sci_uart/r_sci_uart.o
 .text.R_SCI_UART_InfoGet
                0x00000000        0xc ./rzt/fsp/src/r_sci_uart/r_sci_uart.o
 .text.R_SCI_UART_Abort
                0x00000000       0x34 ./rzt/fsp/src/r_sci_uart/r_sci_uart.o
 .text.R_SCI_UART_ReadStop
                0x00000000       0x14 ./rzt/fsp/src/r_sci_uart/r_sci_uart.o
 .text.R_SCI_UART_Close
                0x00000000      0x16c ./rzt/fsp/src/r_sci_uart/r_sci_uart.o
 .text.R_SCI_UART_BaudCalculate
                0x00000000      0x66c ./rzt/fsp/src/r_sci_uart/r_sci_uart.o
 .text.sci_uart_tx_dmac_callback
                0x00000000       0xe0 ./rzt/fsp/src/r_sci_uart/r_sci_uart.o
 .text.sci_uart_rx_dmac_callback
                0x00000000       0xe0 ./rzt/fsp/src/r_sci_uart/r_sci_uart.o
 .rodata.g_uart_on_sci
                0x00000000       0x24 ./rzt/fsp/src/r_sci_uart/r_sci_uart.o
 .rodata.g_div_coefficient
                0x00000000       0x1a ./rzt/fsp/src/r_sci_uart/r_sci_uart.o
 .rodata.g_async_baud
                0x00000000        0xd ./rzt/fsp/src/r_sci_uart/r_sci_uart.o
 .text          0x00000000        0x0 ./rzt/fsp/src/r_ioport/r_ioport.o
 .data          0x00000000        0x0 ./rzt/fsp/src/r_ioport/r_ioport.o
 .bss           0x00000000        0x0 ./rzt/fsp/src/r_ioport/r_ioport.o
 .text.R_IOPORT_Close
                0x00000000        0xc ./rzt/fsp/src/r_ioport/r_ioport.o
 .text.R_IOPORT_PinRead
                0x00000000       0x40 ./rzt/fsp/src/r_ioport/r_ioport.o
 .text.R_IOPORT_PortRead
                0x00000000       0x38 ./rzt/fsp/src/r_ioport/r_ioport.o
 .text.R_IOPORT_PortWrite
                0x00000000       0x58 ./rzt/fsp/src/r_ioport/r_ioport.o
 .text.R_IOPORT_PortDirectionSet
                0x00000000      0x204 ./rzt/fsp/src/r_ioport/r_ioport.o
 .text.R_IOPORT_PortEventInputRead
                0x00000000       0x38 ./rzt/fsp/src/r_ioport/r_ioport.o
 .text.R_IOPORT_PinEventInputRead
                0x00000000       0x40 ./rzt/fsp/src/r_ioport/r_ioport.o
 .text.R_IOPORT_PortEventOutputWrite
                0x00000000       0xc0 ./rzt/fsp/src/r_ioport/r_ioport.o
 .text.R_IOPORT_PinEventOutputWrite
                0x00000000       0xd8 ./rzt/fsp/src/r_ioport/r_ioport.o
 .text.R_IOPORT_PinCfg
                0x00000000       0xf8 ./rzt/fsp/src/r_ioport/r_ioport.o
 .text.R_IOPORT_PinsCfg
                0x00000000        0xc ./rzt/fsp/src/r_ioport/r_ioport.o
 .rodata.g_ioport_on_ioport
                0x00000000       0x34 ./rzt/fsp/src/r_ioport/r_ioport.o
 .text          0x00000000        0x0 ./rzt/fsp/src/r_icu_inter_cpu_irq/r_icu_inter_cpu_irq.o
 .data          0x00000000        0x0 ./rzt/fsp/src/r_icu_inter_cpu_irq/r_icu_inter_cpu_irq.o
 .bss           0x00000000        0x0 ./rzt/fsp/src/r_icu_inter_cpu_irq/r_icu_inter_cpu_irq.o
 .text          0x00000000        0x0 ./rzt/fsp/src/r_gpt/r_gpt.o
 .data          0x00000000        0x0 ./rzt/fsp/src/r_gpt/r_gpt.o
 .bss           0x00000000        0x0 ./rzt/fsp/src/r_gpt/r_gpt.o
 .text.R_GPT_CounterSet
                0x00000000        0xc ./rzt/fsp/src/r_gpt/r_gpt.o
 .text.R_GPT_OutputEnable
                0x00000000       0x18 ./rzt/fsp/src/r_gpt/r_gpt.o
 .text.R_GPT_OutputDisable
                0x00000000       0x18 ./rzt/fsp/src/r_gpt/r_gpt.o
 .text.R_GPT_AdcTriggerSet
                0x00000000       0x10 ./rzt/fsp/src/r_gpt/r_gpt.o
 .text.gpt_dead_time_isr
                0x00000000       0x60 ./rzt/fsp/src/r_gpt/r_gpt.o
 .text.gpt_capture_a_isr
                0x00000000       0xa4 ./rzt/fsp/src/r_gpt/r_gpt.o
 .text.gpt_capture_b_isr
                0x00000000       0xa4 ./rzt/fsp/src/r_gpt/r_gpt.o
 .text          0x00000000        0x0 ./rzt/fsp/src/bsp/mcu/rzt2m/bsp_irq_sense.o
 .data          0x00000000        0x0 ./rzt/fsp/src/bsp/mcu/rzt2m/bsp_irq_sense.o
 .bss           0x00000000        0x0 ./rzt/fsp/src/bsp/mcu/rzt2m/bsp_irq_sense.o
 .rodata.BSP_GICR_SGI_PPI_ICFGR_INIT
                0x00000000        0x8 ./rzt/fsp/src/bsp/mcu/rzt2m/bsp_irq_sense.o
 .text          0x00000000        0x0 ./rzt/fsp/src/bsp/mcu/rzt2m/bsp_loader_param.o
 .data          0x00000000        0x0 ./rzt/fsp/src/bsp/mcu/rzt2m/bsp_loader_param.o
 .bss           0x00000000        0x0 ./rzt/fsp/src/bsp/mcu/rzt2m/bsp_loader_param.o
 .text          0x00000000        0x0 ./rzt/fsp/src/bsp/mcu/all/cr/bsp_cache_core.o
 .data          0x00000000        0x0 ./rzt/fsp/src/bsp/mcu/all/cr/bsp_cache_core.o
 .bss           0x00000000        0x0 ./rzt/fsp/src/bsp/mcu/all/cr/bsp_cache_core.o
 .text.r_bsp_cache_l3_power_ctrl
                0x00000000        0x4 ./rzt/fsp/src/bsp/mcu/all/cr/bsp_cache_core.o
 .debug_info    0x00000000       0x93 ./rzt/fsp/src/bsp/mcu/all/cr/bsp_cache_core.o
 .debug_abbrev  0x00000000       0x44 ./rzt/fsp/src/bsp/mcu/all/cr/bsp_cache_core.o
 .debug_aranges
                0x00000000       0x20 ./rzt/fsp/src/bsp/mcu/all/cr/bsp_cache_core.o
 .debug_ranges  0x00000000       0x10 ./rzt/fsp/src/bsp/mcu/all/cr/bsp_cache_core.o
 .debug_line    0x00000000       0x61 ./rzt/fsp/src/bsp/mcu/all/cr/bsp_cache_core.o
 .debug_str     0x00000000      0x216 ./rzt/fsp/src/bsp/mcu/all/cr/bsp_cache_core.o
 .comment       0x00000000       0x45 ./rzt/fsp/src/bsp/mcu/all/cr/bsp_cache_core.o
 .debug_frame   0x00000000       0x20 ./rzt/fsp/src/bsp/mcu/all/cr/bsp_cache_core.o
 .ARM.attributes
                0x00000000       0x35 ./rzt/fsp/src/bsp/mcu/all/cr/bsp_cache_core.o
 .text          0x00000000        0x0 ./rzt/fsp/src/bsp/mcu/all/cr/bsp_delay_core.o
 .data          0x00000000        0x0 ./rzt/fsp/src/bsp/mcu/all/cr/bsp_delay_core.o
 .bss           0x00000000        0x0 ./rzt/fsp/src/bsp/mcu/all/cr/bsp_delay_core.o
 .text          0x00000000        0x0 ./rzt/fsp/src/bsp/mcu/all/cr/bsp_irq_core.o
 .data          0x00000000        0x0 ./rzt/fsp/src/bsp/mcu/all/cr/bsp_irq_core.o
 .bss           0x00000000        0x0 ./rzt/fsp/src/bsp/mcu/all/cr/bsp_irq_core.o
 .rodata.g_interrupt_event_link_select
                0x00000000      0x380 ./rzt/fsp/src/bsp/mcu/all/cr/bsp_irq_core.o
 .text          0x00000000        0x0 ./rzt/fsp/src/bsp/mcu/all/bsp_address_expander.o
 .data          0x00000000        0x0 ./rzt/fsp/src/bsp/mcu/all/bsp_address_expander.o
 .bss           0x00000000        0x0 ./rzt/fsp/src/bsp/mcu/all/bsp_address_expander.o
 .debug_info    0x00000000       0x79 ./rzt/fsp/src/bsp/mcu/all/bsp_address_expander.o
 .debug_abbrev  0x00000000       0x26 ./rzt/fsp/src/bsp/mcu/all/bsp_address_expander.o
 .debug_aranges
                0x00000000       0x18 ./rzt/fsp/src/bsp/mcu/all/bsp_address_expander.o
 .debug_line    0x00000000       0x52 ./rzt/fsp/src/bsp/mcu/all/bsp_address_expander.o
 .debug_str     0x00000000      0x1ff ./rzt/fsp/src/bsp/mcu/all/bsp_address_expander.o
 .comment       0x00000000       0x45 ./rzt/fsp/src/bsp/mcu/all/bsp_address_expander.o
 .ARM.attributes
                0x00000000       0x35 ./rzt/fsp/src/bsp/mcu/all/bsp_address_expander.o
 .text          0x00000000        0x0 ./rzt/fsp/src/bsp/mcu/all/bsp_cache.o
 .data          0x00000000        0x0 ./rzt/fsp/src/bsp/mcu/all/bsp_cache.o
 .bss           0x00000000        0x0 ./rzt/fsp/src/bsp/mcu/all/bsp_cache.o
 .text.R_BSP_CacheDisableInst
                0x00000000       0x18 ./rzt/fsp/src/bsp/mcu/all/bsp_cache.o
 .text.R_BSP_CacheDisableData
                0x00000000       0x18 ./rzt/fsp/src/bsp/mcu/all/bsp_cache.o
 .text.R_BSP_CacheDisableMemoryProtect
                0x00000000       0x18 ./rzt/fsp/src/bsp/mcu/all/bsp_cache.o
 .text.R_BSP_CacheCleanAll
                0x00000000       0xbc ./rzt/fsp/src/bsp/mcu/all/bsp_cache.o
 .text.R_BSP_CacheCleanInvalidateAll
                0x00000000       0xbc ./rzt/fsp/src/bsp/mcu/all/bsp_cache.o
 .text.R_BSP_CacheCleanRange
                0x00000000       0x44 ./rzt/fsp/src/bsp/mcu/all/bsp_cache.o
 .text.R_BSP_CacheInvalidateRange
                0x00000000       0x44 ./rzt/fsp/src/bsp/mcu/all/bsp_cache.o
 .text.R_BSP_CacheCleanInvalidateRange
                0x00000000       0x44 ./rzt/fsp/src/bsp/mcu/all/bsp_cache.o
 .text.R_BSP_CacheL3PowerCtrl
                0x00000000        0x4 ./rzt/fsp/src/bsp/mcu/all/bsp_cache.o
 .text          0x00000000        0x0 ./rzt/fsp/src/bsp/mcu/all/bsp_clocks.o
 .data          0x00000000        0x0 ./rzt/fsp/src/bsp/mcu/all/bsp_clocks.o
 .bss           0x00000000        0x0 ./rzt/fsp/src/bsp/mcu/all/bsp_clocks.o
 .text.bsp_prv_clock_set
                0x00000000      0x104 ./rzt/fsp/src/bsp/mcu/all/bsp_clocks.o
 .text          0x00000000        0x0 ./rzt/fsp/src/bsp/mcu/all/bsp_common.o
 .data          0x00000000        0x0 ./rzt/fsp/src/bsp/mcu/all/bsp_common.o
 .bss           0x00000000        0x0 ./rzt/fsp/src/bsp/mcu/all/bsp_common.o
 .text.R_FSP_VersionGet
                0x00000000       0x10 ./rzt/fsp/src/bsp/mcu/all/bsp_common.o
 .text.bsp_init_internal
                0x00000000        0x4 ./rzt/fsp/src/bsp/mcu/all/bsp_common.o
 .text.bsp_prv_malloc
                0x00000000        0x4 ./rzt/fsp/src/bsp/mcu/all/bsp_common.o
 .text.bsp_prv_free
                0x00000000        0x4 ./rzt/fsp/src/bsp/mcu/all/bsp_common.o
 .version       0x00000000       0x44 ./rzt/fsp/src/bsp/mcu/all/bsp_common.o
 .rodata.g_bsp_system_clock_select_sci_clk
                0x00000000        0x8 ./rzt/fsp/src/bsp/mcu/all/bsp_common.o
 .rodata.g_bsp_system_clock_select_spi_clk
                0x00000000        0x8 ./rzt/fsp/src/bsp/mcu/all/bsp_common.o
 .rodata.g_bsp_system_clock_select_xspi_clk
                0x00000000       0x40 ./rzt/fsp/src/bsp/mcu/all/bsp_common.o
 .rodata.g_bsp_system_clock_select_ckio
                0x00000000       0x40 ./rzt/fsp/src/bsp/mcu/all/bsp_common.o
 .debug_info    0x00000000      0xa8c ./rzt/fsp/src/bsp/mcu/all/bsp_common.o
 .debug_abbrev  0x00000000      0x1f9 ./rzt/fsp/src/bsp/mcu/all/bsp_common.o
 .debug_loc     0x00000000       0x78 ./rzt/fsp/src/bsp/mcu/all/bsp_common.o
 .debug_aranges
                0x00000000       0x38 ./rzt/fsp/src/bsp/mcu/all/bsp_common.o
 .debug_ranges  0x00000000       0x28 ./rzt/fsp/src/bsp/mcu/all/bsp_common.o
 .debug_line    0x00000000      0x319 ./rzt/fsp/src/bsp/mcu/all/bsp_common.o
 .debug_str     0x00000000     0x1cd9 ./rzt/fsp/src/bsp/mcu/all/bsp_common.o
 .comment       0x00000000       0x45 ./rzt/fsp/src/bsp/mcu/all/bsp_common.o
 .debug_frame   0x00000000       0x50 ./rzt/fsp/src/bsp/mcu/all/bsp_common.o
 .ARM.attributes
                0x00000000       0x35 ./rzt/fsp/src/bsp/mcu/all/bsp_common.o
 .text          0x00000000        0x0 ./rzt/fsp/src/bsp/mcu/all/bsp_ddr.o
 .data          0x00000000        0x0 ./rzt/fsp/src/bsp/mcu/all/bsp_ddr.o
 .bss           0x00000000        0x0 ./rzt/fsp/src/bsp/mcu/all/bsp_ddr.o
 .debug_info    0x00000000       0x79 ./rzt/fsp/src/bsp/mcu/all/bsp_ddr.o
 .debug_abbrev  0x00000000       0x26 ./rzt/fsp/src/bsp/mcu/all/bsp_ddr.o
 .debug_aranges
                0x00000000       0x18 ./rzt/fsp/src/bsp/mcu/all/bsp_ddr.o
 .debug_line    0x00000000       0x45 ./rzt/fsp/src/bsp/mcu/all/bsp_ddr.o
 .debug_str     0x00000000      0x1f2 ./rzt/fsp/src/bsp/mcu/all/bsp_ddr.o
 .comment       0x00000000       0x45 ./rzt/fsp/src/bsp/mcu/all/bsp_ddr.o
 .ARM.attributes
                0x00000000       0x35 ./rzt/fsp/src/bsp/mcu/all/bsp_ddr.o
 .text          0x00000000        0x0 ./rzt/fsp/src/bsp/mcu/all/bsp_ddr_fw_param.o
 .data          0x00000000        0x0 ./rzt/fsp/src/bsp/mcu/all/bsp_ddr_fw_param.o
 .bss           0x00000000        0x0 ./rzt/fsp/src/bsp/mcu/all/bsp_ddr_fw_param.o
 .debug_info    0x00000000       0x79 ./rzt/fsp/src/bsp/mcu/all/bsp_ddr_fw_param.o
 .debug_abbrev  0x00000000       0x26 ./rzt/fsp/src/bsp/mcu/all/bsp_ddr_fw_param.o
 .debug_aranges
                0x00000000       0x18 ./rzt/fsp/src/bsp/mcu/all/bsp_ddr_fw_param.o
 .debug_line    0x00000000       0x4e ./rzt/fsp/src/bsp/mcu/all/bsp_ddr_fw_param.o
 .debug_str     0x00000000      0x1fb ./rzt/fsp/src/bsp/mcu/all/bsp_ddr_fw_param.o
 .comment       0x00000000       0x45 ./rzt/fsp/src/bsp/mcu/all/bsp_ddr_fw_param.o
 .ARM.attributes
                0x00000000       0x35 ./rzt/fsp/src/bsp/mcu/all/bsp_ddr_fw_param.o
 .text          0x00000000        0x0 ./rzt/fsp/src/bsp/mcu/all/bsp_delay.o
 .data          0x00000000        0x0 ./rzt/fsp/src/bsp/mcu/all/bsp_delay.o
 .bss           0x00000000        0x0 ./rzt/fsp/src/bsp/mcu/all/bsp_delay.o
 .text.bsp_prv_software_delay_loop
                0x00000000        0x4 ./rzt/fsp/src/bsp/mcu/all/bsp_delay.o
 .text          0x00000000        0x0 ./rzt/fsp/src/bsp/mcu/all/bsp_io.o
 .data          0x00000000        0x0 ./rzt/fsp/src/bsp/mcu/all/bsp_io.o
 .bss           0x00000000        0x0 ./rzt/fsp/src/bsp/mcu/all/bsp_io.o
 .text          0x00000000        0x0 ./rzt/fsp/src/bsp/mcu/all/bsp_irq.o
 .data          0x00000000        0x0 ./rzt/fsp/src/bsp/mcu/all/bsp_irq.o
 .bss           0x00000000        0x0 ./rzt/fsp/src/bsp/mcu/all/bsp_irq.o
 .text          0x00000000        0x0 ./rzt/fsp/src/bsp/mcu/all/bsp_register_protection.o
 .data          0x00000000        0x0 ./rzt/fsp/src/bsp/mcu/all/bsp_register_protection.o
 .bss           0x00000000        0x0 ./rzt/fsp/src/bsp/mcu/all/bsp_register_protection.o
 .text          0x00000000        0x0 ./rzt/fsp/src/bsp/mcu/all/bsp_reset.o
 .data          0x00000000        0x0 ./rzt/fsp/src/bsp/mcu/all/bsp_reset.o
 .bss           0x00000000        0x0 ./rzt/fsp/src/bsp/mcu/all/bsp_reset.o
 .text.R_BSP_SystemReset
                0x00000000       0x1c ./rzt/fsp/src/bsp/mcu/all/bsp_reset.o
 .text.R_BSP_CPUReset
                0x00000000       0x54 ./rzt/fsp/src/bsp/mcu/all/bsp_reset.o
 .text.R_BSP_CPUResetAutoRelease
                0x00000000       0x54 ./rzt/fsp/src/bsp/mcu/all/bsp_reset.o
 .text.R_BSP_ModuleResetEnable
                0x00000000       0x38 ./rzt/fsp/src/bsp/mcu/all/bsp_reset.o
 .text.R_BSP_ModuleResetDisable
                0x00000000       0x44 ./rzt/fsp/src/bsp/mcu/all/bsp_reset.o
 .text          0x00000000        0x0 ./rzt/fsp/src/bsp/mcu/all/bsp_sbrk.o
 .data          0x00000000        0x0 ./rzt/fsp/src/bsp/mcu/all/bsp_sbrk.o
 .bss           0x00000000        0x0 ./rzt/fsp/src/bsp/mcu/all/bsp_sbrk.o
 .text          0x00000000        0x0 ./rzt/fsp/src/bsp/mcu/all/bsp_semaphore.o
 .data          0x00000000        0x0 ./rzt/fsp/src/bsp/mcu/all/bsp_semaphore.o
 .bss           0x00000000        0x0 ./rzt/fsp/src/bsp/mcu/all/bsp_semaphore.o
 .text          0x00000000        0x0 ./rzt/fsp/src/bsp/mcu/all/bsp_slave_stop.o
 .data          0x00000000        0x0 ./rzt/fsp/src/bsp/mcu/all/bsp_slave_stop.o
 .bss           0x00000000        0x0 ./rzt/fsp/src/bsp/mcu/all/bsp_slave_stop.o
 .debug_info    0x00000000       0x79 ./rzt/fsp/src/bsp/mcu/all/bsp_slave_stop.o
 .debug_abbrev  0x00000000       0x26 ./rzt/fsp/src/bsp/mcu/all/bsp_slave_stop.o
 .debug_aranges
                0x00000000       0x18 ./rzt/fsp/src/bsp/mcu/all/bsp_slave_stop.o
 .debug_line    0x00000000       0x4c ./rzt/fsp/src/bsp/mcu/all/bsp_slave_stop.o
 .debug_str     0x00000000      0x1f9 ./rzt/fsp/src/bsp/mcu/all/bsp_slave_stop.o
 .comment       0x00000000       0x45 ./rzt/fsp/src/bsp/mcu/all/bsp_slave_stop.o
 .ARM.attributes
                0x00000000       0x35 ./rzt/fsp/src/bsp/mcu/all/bsp_slave_stop.o
 .text          0x00000000        0x0 ./rzt/fsp/src/bsp/mcu/all/bsp_tzc400.o
 .data          0x00000000        0x0 ./rzt/fsp/src/bsp/mcu/all/bsp_tzc400.o
 .bss           0x00000000        0x0 ./rzt/fsp/src/bsp/mcu/all/bsp_tzc400.o
 .debug_info    0x00000000       0x79 ./rzt/fsp/src/bsp/mcu/all/bsp_tzc400.o
 .debug_abbrev  0x00000000       0x26 ./rzt/fsp/src/bsp/mcu/all/bsp_tzc400.o
 .debug_aranges
                0x00000000       0x18 ./rzt/fsp/src/bsp/mcu/all/bsp_tzc400.o
 .debug_line    0x00000000       0x48 ./rzt/fsp/src/bsp/mcu/all/bsp_tzc400.o
 .debug_str     0x00000000      0x1f5 ./rzt/fsp/src/bsp/mcu/all/bsp_tzc400.o
 .comment       0x00000000       0x45 ./rzt/fsp/src/bsp/mcu/all/bsp_tzc400.o
 .ARM.attributes
                0x00000000       0x35 ./rzt/fsp/src/bsp/mcu/all/bsp_tzc400.o
 .text          0x00000000        0x0 ./rzt/fsp/src/bsp/cmsis/Device/RENESAS/Source/cr/startup_core.o
 .data          0x00000000        0x0 ./rzt/fsp/src/bsp/cmsis/Device/RENESAS/Source/cr/startup_core.o
 .bss           0x00000000        0x0 ./rzt/fsp/src/bsp/cmsis/Device/RENESAS/Source/cr/startup_core.o
 .text          0x00000000        0x0 ./rzt/fsp/src/bsp/cmsis/Device/RENESAS/Source/cr/system_core.o
 .data          0x00000000        0x0 ./rzt/fsp/src/bsp/cmsis/Device/RENESAS/Source/cr/system_core.o
 .bss           0x00000000        0x0 ./rzt/fsp/src/bsp/cmsis/Device/RENESAS/Source/cr/system_core.o
 .text.bsp_mpu_init
                0x00000000       0x1c ./rzt/fsp/src/bsp/cmsis/Device/RENESAS/Source/cr/system_core.o
 .text          0x00000000        0x0 ./rzt/fsp/src/bsp/cmsis/Device/RENESAS/Source/startup.o
 .data          0x00000000        0x0 ./rzt/fsp/src/bsp/cmsis/Device/RENESAS/Source/startup.o
 .bss           0x00000000        0x0 ./rzt/fsp/src/bsp/cmsis/Device/RENESAS/Source/startup.o
 .text          0x00000000        0x0 ./rzt/fsp/src/bsp/cmsis/Device/RENESAS/Source/system.o
 .data          0x00000000        0x0 ./rzt/fsp/src/bsp/cmsis/Device/RENESAS/Source/system.o
 .bss           0x00000000        0x0 ./rzt/fsp/src/bsp/cmsis/Device/RENESAS/Source/system.o
 .text.R_BSP_WarmStart
                0x00000000        0x4 ./rzt/fsp/src/bsp/cmsis/Device/RENESAS/Source/system.o
 .text          0x00000000        0x0 ./rzt/board/rzt2m_rsk/board_init.o
 .data          0x00000000        0x0 ./rzt/board/rzt2m_rsk/board_init.o
 .bss           0x00000000        0x0 ./rzt/board/rzt2m_rsk/board_init.o
 .text.bsp_init
                0x00000000        0x4 ./rzt/board/rzt2m_rsk/board_init.o
 .debug_info    0x00000000       0xa4 ./rzt/board/rzt2m_rsk/board_init.o
 .debug_abbrev  0x00000000       0x5c ./rzt/board/rzt2m_rsk/board_init.o
 .debug_aranges
                0x00000000       0x20 ./rzt/board/rzt2m_rsk/board_init.o
 .debug_ranges  0x00000000       0x10 ./rzt/board/rzt2m_rsk/board_init.o
 .debug_line    0x00000000       0x5c ./rzt/board/rzt2m_rsk/board_init.o
 .debug_str     0x00000000      0x201 ./rzt/board/rzt2m_rsk/board_init.o
 .comment       0x00000000       0x45 ./rzt/board/rzt2m_rsk/board_init.o
 .debug_frame   0x00000000       0x20 ./rzt/board/rzt2m_rsk/board_init.o
 .ARM.attributes
                0x00000000       0x35 ./rzt/board/rzt2m_rsk/board_init.o
 .text          0x00000000        0x0 ./rzt/board/rzt2m_rsk/board_leds.o
 .data          0x00000000        0x0 ./rzt/board/rzt2m_rsk/board_leds.o
 .bss           0x00000000        0x0 ./rzt/board/rzt2m_rsk/board_leds.o
 .rodata.g_bsp_leds
                0x00000000        0x8 ./rzt/board/rzt2m_rsk/board_leds.o
 .rodata.g_bsp_prv_leds
                0x00000000       0x10 ./rzt/board/rzt2m_rsk/board_leds.o
 .debug_info    0x00000000      0x949 ./rzt/board/rzt2m_rsk/board_leds.o
 .debug_abbrev  0x00000000       0xe2 ./rzt/board/rzt2m_rsk/board_leds.o
 .debug_aranges
                0x00000000       0x18 ./rzt/board/rzt2m_rsk/board_leds.o
 .debug_line    0x00000000      0x1bd ./rzt/board/rzt2m_rsk/board_leds.o
 .debug_str     0x00000000     0x1a53 ./rzt/board/rzt2m_rsk/board_leds.o
 .comment       0x00000000       0x45 ./rzt/board/rzt2m_rsk/board_leds.o
 .ARM.attributes
                0x00000000       0x35 ./rzt/board/rzt2m_rsk/board_leds.o
 .text          0x00000000        0x0 ./coremark/core_list_join.o
 .data          0x00000000        0x0 ./coremark/core_list_join.o
 .bss           0x00000000        0x0 ./coremark/core_list_join.o
 .text.calc_func
                0x00000000       0x8c ./coremark/core_list_join.o
 .text.cmp_idx  0x00000000       0x3c ./coremark/core_list_join.o
 .text.copy_info
                0x00000000        0x8 ./coremark/core_list_join.o
 .text.core_list_insert_new
                0x00000000       0x3c ./coremark/core_list_join.o
 .text.core_list_remove
                0x00000000       0x1c ./coremark/core_list_join.o
 .text.core_list_undo_remove
                0x00000000       0x18 ./coremark/core_list_join.o
 .text.core_list_find
                0x00000000       0x34 ./coremark/core_list_join.o
 .text.core_list_reverse
                0x00000000       0x14 ./coremark/core_list_join.o
 .text.core_list_mergesort
                0x00000000       0xb0 ./coremark/core_list_join.o
 .text          0x00000000        0x0 ./coremark/core_main.o
 .data          0x00000000        0x0 ./coremark/core_main.o
 .bss           0x00000000        0x0 ./coremark/core_main.o
 .text.iterate  0x00000000       0x50 ./coremark/core_main.o
 .rodata.str1.4
                0x00000000       0x16 ./coremark/core_main.o
 .data.mem_name
                0x00000000        0xc ./coremark/core_main.o
 .data.coremarkTemp
                0x00000000        0x4 ./coremark/core_main.o
 .bss.coremarkBuf
                0x00000000     0x1000 ./coremark/core_main.o
 .text          0x00000000        0x0 ./coremark/core_matrix.o
 .data          0x00000000        0x0 ./coremark/core_matrix.o
 .bss           0x00000000        0x0 ./coremark/core_matrix.o
 .text.matrix_sum
                0x00000000       0x5c ./coremark/core_matrix.o
 .text.matrix_mul_const
                0x00000000       0xf4 ./coremark/core_matrix.o
 .text.matrix_add_const
                0x00000000       0xc8 ./coremark/core_matrix.o
 .text.matrix_mul_vect
                0x00000000      0x10c ./coremark/core_matrix.o
 .text.matrix_mul_matrix
                0x00000000      0x1fc ./coremark/core_matrix.o
 .text.matrix_mul_matrix_bitextract
                0x00000000      0x278 ./coremark/core_matrix.o
 .text          0x00000000        0x0 ./coremark/core_portme.o
 .data          0x00000000        0x0 ./coremark/core_portme.o
 .bss           0x00000000        0x0 ./coremark/core_portme.o
 .text          0x00000000        0x0 ./coremark/core_state.o
 .data          0x00000000        0x0 ./coremark/core_state.o
 .bss           0x00000000        0x0 ./coremark/core_state.o
 .text          0x00000000        0x0 ./coremark/core_util.o
 .data          0x00000000        0x0 ./coremark/core_util.o
 .bss           0x00000000        0x0 ./coremark/core_util.o
 .text.crcu8    0x00000000       0x9c ./coremark/core_util.o
 .text          0x00000000       0xa0 C:/Program Files (x86)/Arm GNU Toolchain arm-none-eabi/13.2 Rel1/bin/../lib/gcc/arm-none-eabi/13.2.1/thumb/v7+fp/hard\libgcc.a(_aeabi_ldivmod.o)
 .data          0x00000000        0x0 C:/Program Files (x86)/Arm GNU Toolchain arm-none-eabi/13.2 Rel1/bin/../lib/gcc/arm-none-eabi/13.2.1/thumb/v7+fp/hard\libgcc.a(_aeabi_ldivmod.o)
 .bss           0x00000000        0x0 C:/Program Files (x86)/Arm GNU Toolchain arm-none-eabi/13.2 Rel1/bin/../lib/gcc/arm-none-eabi/13.2.1/thumb/v7+fp/hard\libgcc.a(_aeabi_ldivmod.o)
 .debug_line_str
                0x00000000       0xc6 C:/Program Files (x86)/Arm GNU Toolchain arm-none-eabi/13.2 Rel1/bin/../lib/gcc/arm-none-eabi/13.2.1/thumb/v7+fp/hard\libgcc.a(_aeabi_ldivmod.o)
 .debug_frame   0x00000000       0x44 C:/Program Files (x86)/Arm GNU Toolchain arm-none-eabi/13.2 Rel1/bin/../lib/gcc/arm-none-eabi/13.2.1/thumb/v7+fp/hard\libgcc.a(_aeabi_ldivmod.o)
 .ARM.attributes
                0x00000000       0x1b C:/Program Files (x86)/Arm GNU Toolchain arm-none-eabi/13.2 Rel1/bin/../lib/gcc/arm-none-eabi/13.2.1/thumb/v7+fp/hard\libgcc.a(_aeabi_ldivmod.o)
 .data          0x00000000        0x0 C:/Program Files (x86)/Arm GNU Toolchain arm-none-eabi/13.2 Rel1/bin/../lib/gcc/arm-none-eabi/13.2.1/thumb/v7+fp/hard\libgcc.a(_aeabi_uldivmod.o)
 .bss           0x00000000        0x0 C:/Program Files (x86)/Arm GNU Toolchain arm-none-eabi/13.2 Rel1/bin/../lib/gcc/arm-none-eabi/13.2.1/thumb/v7+fp/hard\libgcc.a(_aeabi_uldivmod.o)
 .text          0x00000000        0x0 C:/Program Files (x86)/Arm GNU Toolchain arm-none-eabi/13.2 Rel1/bin/../lib/gcc/arm-none-eabi/13.2.1/thumb/v7+fp/hard\libgcc.a(_udivmoddi4.o)
 .data          0x00000000        0x0 C:/Program Files (x86)/Arm GNU Toolchain arm-none-eabi/13.2 Rel1/bin/../lib/gcc/arm-none-eabi/13.2.1/thumb/v7+fp/hard\libgcc.a(_udivmoddi4.o)
 .bss           0x00000000        0x0 C:/Program Files (x86)/Arm GNU Toolchain arm-none-eabi/13.2 Rel1/bin/../lib/gcc/arm-none-eabi/13.2.1/thumb/v7+fp/hard\libgcc.a(_udivmoddi4.o)
 .ARM.extab.text.__udivmoddi4
                0x00000000        0x0 C:/Program Files (x86)/Arm GNU Toolchain arm-none-eabi/13.2 Rel1/bin/../lib/gcc/arm-none-eabi/13.2.1/thumb/v7+fp/hard\libgcc.a(_udivmoddi4.o)
 .data          0x00000000        0x0 C:/Program Files (x86)/Arm GNU Toolchain arm-none-eabi/13.2 Rel1/bin/../lib/gcc/arm-none-eabi/13.2.1/thumb/v7+fp/hard\libgcc.a(_dvmd_tls.o)
 .bss           0x00000000        0x0 C:/Program Files (x86)/Arm GNU Toolchain arm-none-eabi/13.2 Rel1/bin/../lib/gcc/arm-none-eabi/13.2.1/thumb/v7+fp/hard\libgcc.a(_dvmd_tls.o)
 .text          0x00000000        0x0 C:/Program Files (x86)/Arm GNU Toolchain arm-none-eabi/13.2 Rel1/bin/../lib/gcc/arm-none-eabi/13.2.1/thumb/v7+fp/hard\libg_nano.a(libc_a-assert.o)
 .data          0x00000000        0x0 C:/Program Files (x86)/Arm GNU Toolchain arm-none-eabi/13.2 Rel1/bin/../lib/gcc/arm-none-eabi/13.2.1/thumb/v7+fp/hard\libg_nano.a(libc_a-assert.o)
 .bss           0x00000000        0x0 C:/Program Files (x86)/Arm GNU Toolchain arm-none-eabi/13.2 Rel1/bin/../lib/gcc/arm-none-eabi/13.2.1/thumb/v7+fp/hard\libg_nano.a(libc_a-assert.o)
 .text.__assert
                0x00000000        0xa C:/Program Files (x86)/Arm GNU Toolchain arm-none-eabi/13.2 Rel1/bin/../lib/gcc/arm-none-eabi/13.2.1/thumb/v7+fp/hard\libg_nano.a(libc_a-assert.o)
 .text          0x00000000        0x0 C:/Program Files (x86)/Arm GNU Toolchain arm-none-eabi/13.2 Rel1/bin/../lib/gcc/arm-none-eabi/13.2.1/thumb/v7+fp/hard\libg_nano.a(libc_a-malloc.o)
 .data          0x00000000        0x0 C:/Program Files (x86)/Arm GNU Toolchain arm-none-eabi/13.2 Rel1/bin/../lib/gcc/arm-none-eabi/13.2.1/thumb/v7+fp/hard\libg_nano.a(libc_a-malloc.o)
 .bss           0x00000000        0x0 C:/Program Files (x86)/Arm GNU Toolchain arm-none-eabi/13.2 Rel1/bin/../lib/gcc/arm-none-eabi/13.2.1/thumb/v7+fp/hard\libg_nano.a(libc_a-malloc.o)
 .text.free     0x00000000       0x10 C:/Program Files (x86)/Arm GNU Toolchain arm-none-eabi/13.2 Rel1/bin/../lib/gcc/arm-none-eabi/13.2.1/thumb/v7+fp/hard\libg_nano.a(libc_a-malloc.o)
 .text          0x00000000        0x0 C:/Program Files (x86)/Arm GNU Toolchain arm-none-eabi/13.2 Rel1/bin/../lib/gcc/arm-none-eabi/13.2.1/thumb/v7+fp/hard\libg_nano.a(libc_a-mallocr.o)
 .data          0x00000000        0x0 C:/Program Files (x86)/Arm GNU Toolchain arm-none-eabi/13.2 Rel1/bin/../lib/gcc/arm-none-eabi/13.2.1/thumb/v7+fp/hard\libg_nano.a(libc_a-mallocr.o)
 .bss           0x00000000        0x0 C:/Program Files (x86)/Arm GNU Toolchain arm-none-eabi/13.2 Rel1/bin/../lib/gcc/arm-none-eabi/13.2.1/thumb/v7+fp/hard\libg_nano.a(libc_a-mallocr.o)
 .text          0x00000000        0x0 C:/Program Files (x86)/Arm GNU Toolchain arm-none-eabi/13.2 Rel1/bin/../lib/gcc/arm-none-eabi/13.2.1/thumb/v7+fp/hard\libg_nano.a(libc_a-mlock.o)
 .data          0x00000000        0x0 C:/Program Files (x86)/Arm GNU Toolchain arm-none-eabi/13.2 Rel1/bin/../lib/gcc/arm-none-eabi/13.2.1/thumb/v7+fp/hard\libg_nano.a(libc_a-mlock.o)
 .bss           0x00000000        0x0 C:/Program Files (x86)/Arm GNU Toolchain arm-none-eabi/13.2 Rel1/bin/../lib/gcc/arm-none-eabi/13.2.1/thumb/v7+fp/hard\libg_nano.a(libc_a-mlock.o)
 .text          0x00000000        0x0 C:/Program Files (x86)/Arm GNU Toolchain arm-none-eabi/13.2 Rel1/bin/../lib/gcc/arm-none-eabi/13.2.1/thumb/v7+fp/hard\libg_nano.a(libc_a-nano-vfprintf_float.o)
 .data          0x00000000        0x0 C:/Program Files (x86)/Arm GNU Toolchain arm-none-eabi/13.2 Rel1/bin/../lib/gcc/arm-none-eabi/13.2.1/thumb/v7+fp/hard\libg_nano.a(libc_a-nano-vfprintf_float.o)
 .bss           0x00000000        0x0 C:/Program Files (x86)/Arm GNU Toolchain arm-none-eabi/13.2 Rel1/bin/../lib/gcc/arm-none-eabi/13.2.1/thumb/v7+fp/hard\libg_nano.a(libc_a-nano-vfprintf_float.o)
 .text          0x00000000        0x0 C:/Program Files (x86)/Arm GNU Toolchain arm-none-eabi/13.2 Rel1/bin/../lib/gcc/arm-none-eabi/13.2.1/thumb/v7+fp/hard\libg_nano.a(libc_a-nano-vfprintf_i.o)
 .data          0x00000000        0x0 C:/Program Files (x86)/Arm GNU Toolchain arm-none-eabi/13.2 Rel1/bin/../lib/gcc/arm-none-eabi/13.2.1/thumb/v7+fp/hard\libg_nano.a(libc_a-nano-vfprintf_i.o)
 .bss           0x00000000        0x0 C:/Program Files (x86)/Arm GNU Toolchain arm-none-eabi/13.2 Rel1/bin/../lib/gcc/arm-none-eabi/13.2.1/thumb/v7+fp/hard\libg_nano.a(libc_a-nano-vfprintf_i.o)
 .text          0x00000000        0x0 C:/Program Files (x86)/Arm GNU Toolchain arm-none-eabi/13.2 Rel1/bin/../lib/gcc/arm-none-eabi/13.2.1/thumb/v7+fp/hard\libg_nano.a(libc_a-nano-vfscanf_float.o)
 .data          0x00000000        0x0 C:/Program Files (x86)/Arm GNU Toolchain arm-none-eabi/13.2 Rel1/bin/../lib/gcc/arm-none-eabi/13.2.1/thumb/v7+fp/hard\libg_nano.a(libc_a-nano-vfscanf_float.o)
 .bss           0x00000000        0x0 C:/Program Files (x86)/Arm GNU Toolchain arm-none-eabi/13.2 Rel1/bin/../lib/gcc/arm-none-eabi/13.2.1/thumb/v7+fp/hard\libg_nano.a(libc_a-nano-vfscanf_float.o)
 .text          0x00000000        0x0 C:/Program Files (x86)/Arm GNU Toolchain arm-none-eabi/13.2 Rel1/bin/../lib/gcc/arm-none-eabi/13.2.1/thumb/v7+fp/hard\libg_nano.a(libc_a-fprintf.o)
 .data          0x00000000        0x0 C:/Program Files (x86)/Arm GNU Toolchain arm-none-eabi/13.2 Rel1/bin/../lib/gcc/arm-none-eabi/13.2.1/thumb/v7+fp/hard\libg_nano.a(libc_a-fprintf.o)
 .bss           0x00000000        0x0 C:/Program Files (x86)/Arm GNU Toolchain arm-none-eabi/13.2 Rel1/bin/../lib/gcc/arm-none-eabi/13.2.1/thumb/v7+fp/hard\libg_nano.a(libc_a-fprintf.o)
 .text._fprintf_r
                0x00000000       0x1a C:/Program Files (x86)/Arm GNU Toolchain arm-none-eabi/13.2 Rel1/bin/../lib/gcc/arm-none-eabi/13.2.1/thumb/v7+fp/hard\libg_nano.a(libc_a-fprintf.o)
 .text          0x00000000        0x0 C:/Program Files (x86)/Arm GNU Toolchain arm-none-eabi/13.2 Rel1/bin/../lib/gcc/arm-none-eabi/13.2.1/thumb/v7+fp/hard\libg_nano.a(libc_a-printf.o)
 .data          0x00000000        0x0 C:/Program Files (x86)/Arm GNU Toolchain arm-none-eabi/13.2 Rel1/bin/../lib/gcc/arm-none-eabi/13.2.1/thumb/v7+fp/hard\libg_nano.a(libc_a-printf.o)
 .bss           0x00000000        0x0 C:/Program Files (x86)/Arm GNU Toolchain arm-none-eabi/13.2 Rel1/bin/../lib/gcc/arm-none-eabi/13.2.1/thumb/v7+fp/hard\libg_nano.a(libc_a-printf.o)
 .text._printf_r
                0x00000000       0x1c C:/Program Files (x86)/Arm GNU Toolchain arm-none-eabi/13.2 Rel1/bin/../lib/gcc/arm-none-eabi/13.2.1/thumb/v7+fp/hard\libg_nano.a(libc_a-printf.o)
 .text          0x00000000        0x0 C:/Program Files (x86)/Arm GNU Toolchain arm-none-eabi/13.2 Rel1/bin/../lib/gcc/arm-none-eabi/13.2.1/thumb/v7+fp/hard\libg_nano.a(libc_a-putchar.o)
 .data          0x00000000        0x0 C:/Program Files (x86)/Arm GNU Toolchain arm-none-eabi/13.2 Rel1/bin/../lib/gcc/arm-none-eabi/13.2.1/thumb/v7+fp/hard\libg_nano.a(libc_a-putchar.o)
 .bss           0x00000000        0x0 C:/Program Files (x86)/Arm GNU Toolchain arm-none-eabi/13.2 Rel1/bin/../lib/gcc/arm-none-eabi/13.2.1/thumb/v7+fp/hard\libg_nano.a(libc_a-putchar.o)
 .text._putchar_r
                0x00000000        0x6 C:/Program Files (x86)/Arm GNU Toolchain arm-none-eabi/13.2 Rel1/bin/../lib/gcc/arm-none-eabi/13.2.1/thumb/v7+fp/hard\libg_nano.a(libc_a-putchar.o)
 .text          0x00000000        0x0 C:/Program Files (x86)/Arm GNU Toolchain arm-none-eabi/13.2 Rel1/bin/../lib/gcc/arm-none-eabi/13.2.1/thumb/v7+fp/hard\libg_nano.a(libc_a-puts.o)
 .data          0x00000000        0x0 C:/Program Files (x86)/Arm GNU Toolchain arm-none-eabi/13.2 Rel1/bin/../lib/gcc/arm-none-eabi/13.2.1/thumb/v7+fp/hard\libg_nano.a(libc_a-puts.o)
 .bss           0x00000000        0x0 C:/Program Files (x86)/Arm GNU Toolchain arm-none-eabi/13.2 Rel1/bin/../lib/gcc/arm-none-eabi/13.2.1/thumb/v7+fp/hard\libg_nano.a(libc_a-puts.o)
 .text          0x00000000        0x0 C:/Program Files (x86)/Arm GNU Toolchain arm-none-eabi/13.2 Rel1/bin/../lib/gcc/arm-none-eabi/13.2.1/thumb/v7+fp/hard\libg_nano.a(libc_a-sprintf.o)
 .data          0x00000000        0x0 C:/Program Files (x86)/Arm GNU Toolchain arm-none-eabi/13.2 Rel1/bin/../lib/gcc/arm-none-eabi/13.2.1/thumb/v7+fp/hard\libg_nano.a(libc_a-sprintf.o)
 .bss           0x00000000        0x0 C:/Program Files (x86)/Arm GNU Toolchain arm-none-eabi/13.2 Rel1/bin/../lib/gcc/arm-none-eabi/13.2.1/thumb/v7+fp/hard\libg_nano.a(libc_a-sprintf.o)
 .text._sprintf_r
                0x00000000       0x38 C:/Program Files (x86)/Arm GNU Toolchain arm-none-eabi/13.2 Rel1/bin/../lib/gcc/arm-none-eabi/13.2.1/thumb/v7+fp/hard\libg_nano.a(libc_a-sprintf.o)
 .text          0x00000000        0x0 C:/Program Files (x86)/Arm GNU Toolchain arm-none-eabi/13.2 Rel1/bin/../lib/gcc/arm-none-eabi/13.2.1/thumb/v7+fp/hard\libg_nano.a(libc_a-wbuf.o)
 .data          0x00000000        0x0 C:/Program Files (x86)/Arm GNU Toolchain arm-none-eabi/13.2 Rel1/bin/../lib/gcc/arm-none-eabi/13.2.1/thumb/v7+fp/hard\libg_nano.a(libc_a-wbuf.o)
 .bss           0x00000000        0x0 C:/Program Files (x86)/Arm GNU Toolchain arm-none-eabi/13.2 Rel1/bin/../lib/gcc/arm-none-eabi/13.2.1/thumb/v7+fp/hard\libg_nano.a(libc_a-wbuf.o)
 .text.__swbuf  0x00000000       0x10 C:/Program Files (x86)/Arm GNU Toolchain arm-none-eabi/13.2 Rel1/bin/../lib/gcc/arm-none-eabi/13.2.1/thumb/v7+fp/hard\libg_nano.a(libc_a-wbuf.o)
 .text          0x00000000        0x0 C:/Program Files (x86)/Arm GNU Toolchain arm-none-eabi/13.2 Rel1/bin/../lib/gcc/arm-none-eabi/13.2.1/thumb/v7+fp/hard\libg_nano.a(libc_a-wsetup.o)
 .data          0x00000000        0x0 C:/Program Files (x86)/Arm GNU Toolchain arm-none-eabi/13.2 Rel1/bin/../lib/gcc/arm-none-eabi/13.2.1/thumb/v7+fp/hard\libg_nano.a(libc_a-wsetup.o)
 .bss           0x00000000        0x0 C:/Program Files (x86)/Arm GNU Toolchain arm-none-eabi/13.2 Rel1/bin/../lib/gcc/arm-none-eabi/13.2.1/thumb/v7+fp/hard\libg_nano.a(libc_a-wsetup.o)
 .text          0x00000000        0x0 C:/Program Files (x86)/Arm GNU Toolchain arm-none-eabi/13.2 Rel1/bin/../lib/gcc/arm-none-eabi/13.2.1/thumb/v7+fp/hard\libg_nano.a(libc_a-memset.o)
 .data          0x00000000        0x0 C:/Program Files (x86)/Arm GNU Toolchain arm-none-eabi/13.2 Rel1/bin/../lib/gcc/arm-none-eabi/13.2.1/thumb/v7+fp/hard\libg_nano.a(libc_a-memset.o)
 .bss           0x00000000        0x0 C:/Program Files (x86)/Arm GNU Toolchain arm-none-eabi/13.2 Rel1/bin/../lib/gcc/arm-none-eabi/13.2.1/thumb/v7+fp/hard\libg_nano.a(libc_a-memset.o)
 .text          0x00000000        0x0 C:/Program Files (x86)/Arm GNU Toolchain arm-none-eabi/13.2 Rel1/bin/../lib/gcc/arm-none-eabi/13.2.1/thumb/v7+fp/hard\libg_nano.a(libc_a-clock.o)
 .data          0x00000000        0x0 C:/Program Files (x86)/Arm GNU Toolchain arm-none-eabi/13.2 Rel1/bin/../lib/gcc/arm-none-eabi/13.2.1/thumb/v7+fp/hard\libg_nano.a(libc_a-clock.o)
 .bss           0x00000000        0x0 C:/Program Files (x86)/Arm GNU Toolchain arm-none-eabi/13.2 Rel1/bin/../lib/gcc/arm-none-eabi/13.2.1/thumb/v7+fp/hard\libg_nano.a(libc_a-clock.o)
 .text          0x00000000        0x0 C:/Program Files (x86)/Arm GNU Toolchain arm-none-eabi/13.2 Rel1/bin/../lib/gcc/arm-none-eabi/13.2.1/thumb/v7+fp/hard\libg_nano.a(libc_a-localeconv.o)
 .data          0x00000000        0x0 C:/Program Files (x86)/Arm GNU Toolchain arm-none-eabi/13.2 Rel1/bin/../lib/gcc/arm-none-eabi/13.2.1/thumb/v7+fp/hard\libg_nano.a(libc_a-localeconv.o)
 .bss           0x00000000        0x0 C:/Program Files (x86)/Arm GNU Toolchain arm-none-eabi/13.2 Rel1/bin/../lib/gcc/arm-none-eabi/13.2.1/thumb/v7+fp/hard\libg_nano.a(libc_a-localeconv.o)
 .text.__localeconv_l
                0x00000000        0x4 C:/Program Files (x86)/Arm GNU Toolchain arm-none-eabi/13.2 Rel1/bin/../lib/gcc/arm-none-eabi/13.2.1/thumb/v7+fp/hard\libg_nano.a(libc_a-localeconv.o)
 .text.localeconv
                0x00000000        0x8 C:/Program Files (x86)/Arm GNU Toolchain arm-none-eabi/13.2 Rel1/bin/../lib/gcc/arm-none-eabi/13.2.1/thumb/v7+fp/hard\libg_nano.a(libc_a-localeconv.o)
 .text          0x00000000        0x0 C:/Program Files (x86)/Arm GNU Toolchain arm-none-eabi/13.2 Rel1/bin/../lib/gcc/arm-none-eabi/13.2.1/thumb/v7+fp/hard\libg_nano.a(libc_a-impure.o)
 .data          0x00000000        0x0 C:/Program Files (x86)/Arm GNU Toolchain arm-none-eabi/13.2 Rel1/bin/../lib/gcc/arm-none-eabi/13.2.1/thumb/v7+fp/hard\libg_nano.a(libc_a-impure.o)
 .bss           0x00000000        0x0 C:/Program Files (x86)/Arm GNU Toolchain arm-none-eabi/13.2 Rel1/bin/../lib/gcc/arm-none-eabi/13.2.1/thumb/v7+fp/hard\libg_nano.a(libc_a-impure.o)
 .text          0x00000000        0x0 C:/Program Files (x86)/Arm GNU Toolchain arm-none-eabi/13.2 Rel1/bin/../lib/gcc/arm-none-eabi/13.2.1/thumb/v7+fp/hard\libg_nano.a(libc_a-sbrkr.o)
 .data          0x00000000        0x0 C:/Program Files (x86)/Arm GNU Toolchain arm-none-eabi/13.2 Rel1/bin/../lib/gcc/arm-none-eabi/13.2.1/thumb/v7+fp/hard\libg_nano.a(libc_a-sbrkr.o)
 .bss           0x00000000        0x0 C:/Program Files (x86)/Arm GNU Toolchain arm-none-eabi/13.2 Rel1/bin/../lib/gcc/arm-none-eabi/13.2.1/thumb/v7+fp/hard\libg_nano.a(libc_a-sbrkr.o)
 .text          0x00000000        0x0 C:/Program Files (x86)/Arm GNU Toolchain arm-none-eabi/13.2 Rel1/bin/../lib/gcc/arm-none-eabi/13.2.1/thumb/v7+fp/hard\libg_nano.a(libc_a-timesr.o)
 .data          0x00000000        0x0 C:/Program Files (x86)/Arm GNU Toolchain arm-none-eabi/13.2 Rel1/bin/../lib/gcc/arm-none-eabi/13.2.1/thumb/v7+fp/hard\libg_nano.a(libc_a-timesr.o)
 .bss           0x00000000        0x0 C:/Program Files (x86)/Arm GNU Toolchain arm-none-eabi/13.2 Rel1/bin/../lib/gcc/arm-none-eabi/13.2.1/thumb/v7+fp/hard\libg_nano.a(libc_a-timesr.o)
 .text          0x00000000        0x0 C:/Program Files (x86)/Arm GNU Toolchain arm-none-eabi/13.2 Rel1/bin/../lib/gcc/arm-none-eabi/13.2.1/thumb/v7+fp/hard\libg_nano.a(libc_a-errno.o)
 .data          0x00000000        0x0 C:/Program Files (x86)/Arm GNU Toolchain arm-none-eabi/13.2 Rel1/bin/../lib/gcc/arm-none-eabi/13.2.1/thumb/v7+fp/hard\libg_nano.a(libc_a-errno.o)
 .bss           0x00000000        0x0 C:/Program Files (x86)/Arm GNU Toolchain arm-none-eabi/13.2 Rel1/bin/../lib/gcc/arm-none-eabi/13.2.1/thumb/v7+fp/hard\libg_nano.a(libc_a-errno.o)
 .text          0x00000000        0x0 C:/Program Files (x86)/Arm GNU Toolchain arm-none-eabi/13.2 Rel1/bin/../lib/gcc/arm-none-eabi/13.2.1/thumb/v7+fp/hard\libg_nano.a(libc_a-lock.o)
 .data          0x00000000        0x0 C:/Program Files (x86)/Arm GNU Toolchain arm-none-eabi/13.2 Rel1/bin/../lib/gcc/arm-none-eabi/13.2.1/thumb/v7+fp/hard\libg_nano.a(libc_a-lock.o)
 .bss           0x00000000        0x0 C:/Program Files (x86)/Arm GNU Toolchain arm-none-eabi/13.2 Rel1/bin/../lib/gcc/arm-none-eabi/13.2.1/thumb/v7+fp/hard\libg_nano.a(libc_a-lock.o)
 .text.__retarget_lock_init
                0x00000000        0x2 C:/Program Files (x86)/Arm GNU Toolchain arm-none-eabi/13.2 Rel1/bin/../lib/gcc/arm-none-eabi/13.2.1/thumb/v7+fp/hard\libg_nano.a(libc_a-lock.o)
 .text.__retarget_lock_close
                0x00000000        0x2 C:/Program Files (x86)/Arm GNU Toolchain arm-none-eabi/13.2 Rel1/bin/../lib/gcc/arm-none-eabi/13.2.1/thumb/v7+fp/hard\libg_nano.a(libc_a-lock.o)
 .text.__retarget_lock_close_recursive
                0x00000000        0x2 C:/Program Files (x86)/Arm GNU Toolchain arm-none-eabi/13.2 Rel1/bin/../lib/gcc/arm-none-eabi/13.2.1/thumb/v7+fp/hard\libg_nano.a(libc_a-lock.o)
 .text.__retarget_lock_acquire
                0x00000000        0x2 C:/Program Files (x86)/Arm GNU Toolchain arm-none-eabi/13.2 Rel1/bin/../lib/gcc/arm-none-eabi/13.2.1/thumb/v7+fp/hard\libg_nano.a(libc_a-lock.o)
 .text.__retarget_lock_try_acquire
                0x00000000        0x4 C:/Program Files (x86)/Arm GNU Toolchain arm-none-eabi/13.2 Rel1/bin/../lib/gcc/arm-none-eabi/13.2.1/thumb/v7+fp/hard\libg_nano.a(libc_a-lock.o)
 .text.__retarget_lock_try_acquire_recursive
                0x00000000        0x4 C:/Program Files (x86)/Arm GNU Toolchain arm-none-eabi/13.2 Rel1/bin/../lib/gcc/arm-none-eabi/13.2.1/thumb/v7+fp/hard\libg_nano.a(libc_a-lock.o)
 .text.__retarget_lock_release
                0x00000000        0x2 C:/Program Files (x86)/Arm GNU Toolchain arm-none-eabi/13.2 Rel1/bin/../lib/gcc/arm-none-eabi/13.2.1/thumb/v7+fp/hard\libg_nano.a(libc_a-lock.o)
 .bss.__lock___arc4random_mutex
                0x00000000        0x1 C:/Program Files (x86)/Arm GNU Toolchain arm-none-eabi/13.2 Rel1/bin/../lib/gcc/arm-none-eabi/13.2.1/thumb/v7+fp/hard\libg_nano.a(libc_a-lock.o)
 .bss.__lock___dd_hash_mutex
                0x00000000        0x1 C:/Program Files (x86)/Arm GNU Toolchain arm-none-eabi/13.2 Rel1/bin/../lib/gcc/arm-none-eabi/13.2.1/thumb/v7+fp/hard\libg_nano.a(libc_a-lock.o)
 .bss.__lock___tz_mutex
                0x00000000        0x1 C:/Program Files (x86)/Arm GNU Toolchain arm-none-eabi/13.2 Rel1/bin/../lib/gcc/arm-none-eabi/13.2.1/thumb/v7+fp/hard\libg_nano.a(libc_a-lock.o)
 .bss.__lock___env_recursive_mutex
                0x00000000        0x1 C:/Program Files (x86)/Arm GNU Toolchain arm-none-eabi/13.2 Rel1/bin/../lib/gcc/arm-none-eabi/13.2.1/thumb/v7+fp/hard\libg_nano.a(libc_a-lock.o)
 .bss.__lock___at_quick_exit_mutex
                0x00000000        0x1 C:/Program Files (x86)/Arm GNU Toolchain arm-none-eabi/13.2 Rel1/bin/../lib/gcc/arm-none-eabi/13.2.1/thumb/v7+fp/hard\libg_nano.a(libc_a-lock.o)
 .bss.__lock___atexit_recursive_mutex
                0x00000000        0x1 C:/Program Files (x86)/Arm GNU Toolchain arm-none-eabi/13.2 Rel1/bin/../lib/gcc/arm-none-eabi/13.2.1/thumb/v7+fp/hard\libg_nano.a(libc_a-lock.o)
 .text          0x00000000        0x0 C:/Program Files (x86)/Arm GNU Toolchain arm-none-eabi/13.2 Rel1/bin/../lib/gcc/arm-none-eabi/13.2.1/thumb/v7+fp/hard\libg_nano.a(libc_a-memchr-stub.o)
 .data          0x00000000        0x0 C:/Program Files (x86)/Arm GNU Toolchain arm-none-eabi/13.2 Rel1/bin/../lib/gcc/arm-none-eabi/13.2.1/thumb/v7+fp/hard\libg_nano.a(libc_a-memchr-stub.o)
 .bss           0x00000000        0x0 C:/Program Files (x86)/Arm GNU Toolchain arm-none-eabi/13.2 Rel1/bin/../lib/gcc/arm-none-eabi/13.2.1/thumb/v7+fp/hard\libg_nano.a(libc_a-memchr-stub.o)
 .text          0x00000000        0x0 C:/Program Files (x86)/Arm GNU Toolchain arm-none-eabi/13.2 Rel1/bin/../lib/gcc/arm-none-eabi/13.2.1/thumb/v7+fp/hard\libg_nano.a(libc_a-memcpy-stub.o)
 .data          0x00000000        0x0 C:/Program Files (x86)/Arm GNU Toolchain arm-none-eabi/13.2 Rel1/bin/../lib/gcc/arm-none-eabi/13.2.1/thumb/v7+fp/hard\libg_nano.a(libc_a-memcpy-stub.o)
 .bss           0x00000000        0x0 C:/Program Files (x86)/Arm GNU Toolchain arm-none-eabi/13.2 Rel1/bin/../lib/gcc/arm-none-eabi/13.2.1/thumb/v7+fp/hard\libg_nano.a(libc_a-memcpy-stub.o)
 .data          0x00000000        0x0 C:/Program Files (x86)/Arm GNU Toolchain arm-none-eabi/13.2 Rel1/bin/../lib/gcc/arm-none-eabi/13.2.1/thumb/v7+fp/hard\libg_nano.a(libc_a-strlen.o)
 .bss           0x00000000        0x0 C:/Program Files (x86)/Arm GNU Toolchain arm-none-eabi/13.2 Rel1/bin/../lib/gcc/arm-none-eabi/13.2.1/thumb/v7+fp/hard\libg_nano.a(libc_a-strlen.o)
 .ARM.extab     0x00000000        0x0 C:/Program Files (x86)/Arm GNU Toolchain arm-none-eabi/13.2 Rel1/bin/../lib/gcc/arm-none-eabi/13.2.1/thumb/v7+fp/hard\libg_nano.a(libc_a-strlen.o)
 .text          0x00000000        0x0 C:/Program Files (x86)/Arm GNU Toolchain arm-none-eabi/13.2 Rel1/bin/../lib/gcc/arm-none-eabi/13.2.1/thumb/v7+fp/hard\libg_nano.a(libm_a-sf_nan.o)
 .data          0x00000000        0x0 C:/Program Files (x86)/Arm GNU Toolchain arm-none-eabi/13.2 Rel1/bin/../lib/gcc/arm-none-eabi/13.2.1/thumb/v7+fp/hard\libg_nano.a(libm_a-sf_nan.o)
 .bss           0x00000000        0x0 C:/Program Files (x86)/Arm GNU Toolchain arm-none-eabi/13.2 Rel1/bin/../lib/gcc/arm-none-eabi/13.2.1/thumb/v7+fp/hard\libg_nano.a(libm_a-sf_nan.o)
 .text          0x00000000        0x0 C:/Program Files (x86)/Arm GNU Toolchain arm-none-eabi/13.2 Rel1/bin/../lib/gcc/arm-none-eabi/13.2.1/thumb/v7+fp/hard\libg_nano.a(libc_a-abort.o)
 .data          0x00000000        0x0 C:/Program Files (x86)/Arm GNU Toolchain arm-none-eabi/13.2 Rel1/bin/../lib/gcc/arm-none-eabi/13.2.1/thumb/v7+fp/hard\libg_nano.a(libc_a-abort.o)
 .bss           0x00000000        0x0 C:/Program Files (x86)/Arm GNU Toolchain arm-none-eabi/13.2 Rel1/bin/../lib/gcc/arm-none-eabi/13.2.1/thumb/v7+fp/hard\libg_nano.a(libc_a-abort.o)
 .text          0x00000000        0x0 C:/Program Files (x86)/Arm GNU Toolchain arm-none-eabi/13.2 Rel1/bin/../lib/gcc/arm-none-eabi/13.2.1/thumb/v7+fp/hard\libg_nano.a(libc_a-dtoa.o)
 .data          0x00000000        0x0 C:/Program Files (x86)/Arm GNU Toolchain arm-none-eabi/13.2 Rel1/bin/../lib/gcc/arm-none-eabi/13.2.1/thumb/v7+fp/hard\libg_nano.a(libc_a-dtoa.o)
 .bss           0x00000000        0x0 C:/Program Files (x86)/Arm GNU Toolchain arm-none-eabi/13.2 Rel1/bin/../lib/gcc/arm-none-eabi/13.2.1/thumb/v7+fp/hard\libg_nano.a(libc_a-dtoa.o)
 .text          0x00000000        0x0 C:/Program Files (x86)/Arm GNU Toolchain arm-none-eabi/13.2 Rel1/bin/../lib/gcc/arm-none-eabi/13.2.1/thumb/v7+fp/hard\libg_nano.a(libc_a-freer.o)
 .data          0x00000000        0x0 C:/Program Files (x86)/Arm GNU Toolchain arm-none-eabi/13.2 Rel1/bin/../lib/gcc/arm-none-eabi/13.2.1/thumb/v7+fp/hard\libg_nano.a(libc_a-freer.o)
 .bss           0x00000000        0x0 C:/Program Files (x86)/Arm GNU Toolchain arm-none-eabi/13.2 Rel1/bin/../lib/gcc/arm-none-eabi/13.2.1/thumb/v7+fp/hard\libg_nano.a(libc_a-freer.o)
 .text          0x00000000        0x0 C:/Program Files (x86)/Arm GNU Toolchain arm-none-eabi/13.2 Rel1/bin/../lib/gcc/arm-none-eabi/13.2.1/thumb/v7+fp/hard\libg_nano.a(libc_a-mprec.o)
 .data          0x00000000        0x0 C:/Program Files (x86)/Arm GNU Toolchain arm-none-eabi/13.2 Rel1/bin/../lib/gcc/arm-none-eabi/13.2.1/thumb/v7+fp/hard\libg_nano.a(libc_a-mprec.o)
 .bss           0x00000000        0x0 C:/Program Files (x86)/Arm GNU Toolchain arm-none-eabi/13.2 Rel1/bin/../lib/gcc/arm-none-eabi/13.2.1/thumb/v7+fp/hard\libg_nano.a(libc_a-mprec.o)
 .text._mprec_log10
                0x00000000       0x28 C:/Program Files (x86)/Arm GNU Toolchain arm-none-eabi/13.2 Rel1/bin/../lib/gcc/arm-none-eabi/13.2.1/thumb/v7+fp/hard\libg_nano.a(libc_a-mprec.o)
 .rodata.__mprec_tinytens
                0x00000000       0x28 C:/Program Files (x86)/Arm GNU Toolchain arm-none-eabi/13.2 Rel1/bin/../lib/gcc/arm-none-eabi/13.2.1/thumb/v7+fp/hard\libg_nano.a(libc_a-mprec.o)
 .text          0x00000000        0x0 C:/Program Files (x86)/Arm GNU Toolchain arm-none-eabi/13.2 Rel1/bin/../lib/gcc/arm-none-eabi/13.2.1/thumb/v7+fp/hard\libg_nano.a(libc_a-strtod.o)
 .data          0x00000000        0x0 C:/Program Files (x86)/Arm GNU Toolchain arm-none-eabi/13.2 Rel1/bin/../lib/gcc/arm-none-eabi/13.2.1/thumb/v7+fp/hard\libg_nano.a(libc_a-strtod.o)
 .bss           0x00000000        0x0 C:/Program Files (x86)/Arm GNU Toolchain arm-none-eabi/13.2 Rel1/bin/../lib/gcc/arm-none-eabi/13.2.1/thumb/v7+fp/hard\libg_nano.a(libc_a-strtod.o)
 .text.strtod_l
                0x00000000       0x14 C:/Program Files (x86)/Arm GNU Toolchain arm-none-eabi/13.2 Rel1/bin/../lib/gcc/arm-none-eabi/13.2.1/thumb/v7+fp/hard\libg_nano.a(libc_a-strtod.o)
 .text.strtod   0x00000000       0x18 C:/Program Files (x86)/Arm GNU Toolchain arm-none-eabi/13.2 Rel1/bin/../lib/gcc/arm-none-eabi/13.2.1/thumb/v7+fp/hard\libg_nano.a(libc_a-strtod.o)
 .text.strtof_l
                0x00000000       0x84 C:/Program Files (x86)/Arm GNU Toolchain arm-none-eabi/13.2 Rel1/bin/../lib/gcc/arm-none-eabi/13.2.1/thumb/v7+fp/hard\libg_nano.a(libc_a-strtod.o)
 .text.strtof   0x00000000       0x9c C:/Program Files (x86)/Arm GNU Toolchain arm-none-eabi/13.2 Rel1/bin/../lib/gcc/arm-none-eabi/13.2.1/thumb/v7+fp/hard\libg_nano.a(libc_a-strtod.o)
 .text          0x00000000        0x0 C:/Program Files (x86)/Arm GNU Toolchain arm-none-eabi/13.2 Rel1/bin/../lib/gcc/arm-none-eabi/13.2.1/thumb/v7+fp/hard\libg_nano.a(libc_a-strtol.o)
 .data          0x00000000        0x0 C:/Program Files (x86)/Arm GNU Toolchain arm-none-eabi/13.2 Rel1/bin/../lib/gcc/arm-none-eabi/13.2.1/thumb/v7+fp/hard\libg_nano.a(libc_a-strtol.o)
 .bss           0x00000000        0x0 C:/Program Files (x86)/Arm GNU Toolchain arm-none-eabi/13.2 Rel1/bin/../lib/gcc/arm-none-eabi/13.2.1/thumb/v7+fp/hard\libg_nano.a(libc_a-strtol.o)
 .text.strtol_l
                0x00000000       0x14 C:/Program Files (x86)/Arm GNU Toolchain arm-none-eabi/13.2 Rel1/bin/../lib/gcc/arm-none-eabi/13.2.1/thumb/v7+fp/hard\libg_nano.a(libc_a-strtol.o)
 .text.strtol   0x00000000       0x14 C:/Program Files (x86)/Arm GNU Toolchain arm-none-eabi/13.2 Rel1/bin/../lib/gcc/arm-none-eabi/13.2.1/thumb/v7+fp/hard\libg_nano.a(libc_a-strtol.o)
 .text          0x00000000        0x0 C:/Program Files (x86)/Arm GNU Toolchain arm-none-eabi/13.2 Rel1/bin/../lib/gcc/arm-none-eabi/13.2.1/thumb/v7+fp/hard\libg_nano.a(libc_a-ctype_.o)
 .data          0x00000000        0x0 C:/Program Files (x86)/Arm GNU Toolchain arm-none-eabi/13.2 Rel1/bin/../lib/gcc/arm-none-eabi/13.2.1/thumb/v7+fp/hard\libg_nano.a(libc_a-ctype_.o)
 .bss           0x00000000        0x0 C:/Program Files (x86)/Arm GNU Toolchain arm-none-eabi/13.2 Rel1/bin/../lib/gcc/arm-none-eabi/13.2.1/thumb/v7+fp/hard\libg_nano.a(libc_a-ctype_.o)
 .text          0x00000000        0x0 C:/Program Files (x86)/Arm GNU Toolchain arm-none-eabi/13.2 Rel1/bin/../lib/gcc/arm-none-eabi/13.2.1/thumb/v7+fp/hard\libg_nano.a(libc_a-nano-svfprintf.o)
 .data          0x00000000        0x0 C:/Program Files (x86)/Arm GNU Toolchain arm-none-eabi/13.2 Rel1/bin/../lib/gcc/arm-none-eabi/13.2.1/thumb/v7+fp/hard\libg_nano.a(libc_a-nano-svfprintf.o)
 .bss           0x00000000        0x0 C:/Program Files (x86)/Arm GNU Toolchain arm-none-eabi/13.2 Rel1/bin/../lib/gcc/arm-none-eabi/13.2.1/thumb/v7+fp/hard\libg_nano.a(libc_a-nano-svfprintf.o)
 .text.__ssprint_r
                0x00000000       0xfa C:/Program Files (x86)/Arm GNU Toolchain arm-none-eabi/13.2 Rel1/bin/../lib/gcc/arm-none-eabi/13.2.1/thumb/v7+fp/hard\libg_nano.a(libc_a-nano-svfprintf.o)
 .text          0x00000000        0x0 C:/Program Files (x86)/Arm GNU Toolchain arm-none-eabi/13.2 Rel1/bin/../lib/gcc/arm-none-eabi/13.2.1/thumb/v7+fp/hard\libg_nano.a(libc_a-nano-vfprintf.o)
 .data          0x00000000        0x0 C:/Program Files (x86)/Arm GNU Toolchain arm-none-eabi/13.2 Rel1/bin/../lib/gcc/arm-none-eabi/13.2.1/thumb/v7+fp/hard\libg_nano.a(libc_a-nano-vfprintf.o)
 .bss           0x00000000        0x0 C:/Program Files (x86)/Arm GNU Toolchain arm-none-eabi/13.2 Rel1/bin/../lib/gcc/arm-none-eabi/13.2.1/thumb/v7+fp/hard\libg_nano.a(libc_a-nano-vfprintf.o)
 .text.__sprint_r
                0x00000000       0x1a C:/Program Files (x86)/Arm GNU Toolchain arm-none-eabi/13.2 Rel1/bin/../lib/gcc/arm-none-eabi/13.2.1/thumb/v7+fp/hard\libg_nano.a(libc_a-nano-vfprintf.o)
 .text.vfprintf
                0x00000000       0x14 C:/Program Files (x86)/Arm GNU Toolchain arm-none-eabi/13.2 Rel1/bin/../lib/gcc/arm-none-eabi/13.2.1/thumb/v7+fp/hard\libg_nano.a(libc_a-nano-vfprintf.o)
 .text          0x00000000        0x0 C:/Program Files (x86)/Arm GNU Toolchain arm-none-eabi/13.2 Rel1/bin/../lib/gcc/arm-none-eabi/13.2.1/thumb/v7+fp/hard\libg_nano.a(libc_a-fflush.o)
 .data          0x00000000        0x0 C:/Program Files (x86)/Arm GNU Toolchain arm-none-eabi/13.2 Rel1/bin/../lib/gcc/arm-none-eabi/13.2.1/thumb/v7+fp/hard\libg_nano.a(libc_a-fflush.o)
 .bss           0x00000000        0x0 C:/Program Files (x86)/Arm GNU Toolchain arm-none-eabi/13.2 Rel1/bin/../lib/gcc/arm-none-eabi/13.2.1/thumb/v7+fp/hard\libg_nano.a(libc_a-fflush.o)
 .text.fflush   0x00000000       0x28 C:/Program Files (x86)/Arm GNU Toolchain arm-none-eabi/13.2 Rel1/bin/../lib/gcc/arm-none-eabi/13.2.1/thumb/v7+fp/hard\libg_nano.a(libc_a-fflush.o)
 .text          0x00000000        0x0 C:/Program Files (x86)/Arm GNU Toolchain arm-none-eabi/13.2 Rel1/bin/../lib/gcc/arm-none-eabi/13.2.1/thumb/v7+fp/hard\libg_nano.a(libc_a-findfp.o)
 .data          0x00000000        0x0 C:/Program Files (x86)/Arm GNU Toolchain arm-none-eabi/13.2 Rel1/bin/../lib/gcc/arm-none-eabi/13.2.1/thumb/v7+fp/hard\libg_nano.a(libc_a-findfp.o)
 .bss           0x00000000        0x0 C:/Program Files (x86)/Arm GNU Toolchain arm-none-eabi/13.2 Rel1/bin/../lib/gcc/arm-none-eabi/13.2.1/thumb/v7+fp/hard\libg_nano.a(libc_a-findfp.o)
 .text.__fp_lock
                0x00000000       0x18 C:/Program Files (x86)/Arm GNU Toolchain arm-none-eabi/13.2 Rel1/bin/../lib/gcc/arm-none-eabi/13.2.1/thumb/v7+fp/hard\libg_nano.a(libc_a-findfp.o)
 .text.__fp_unlock
                0x00000000       0x18 C:/Program Files (x86)/Arm GNU Toolchain arm-none-eabi/13.2 Rel1/bin/../lib/gcc/arm-none-eabi/13.2.1/thumb/v7+fp/hard\libg_nano.a(libc_a-findfp.o)
 .text.__sfp    0x00000000       0xa4 C:/Program Files (x86)/Arm GNU Toolchain arm-none-eabi/13.2 Rel1/bin/../lib/gcc/arm-none-eabi/13.2.1/thumb/v7+fp/hard\libg_nano.a(libc_a-findfp.o)
 .text.__fp_lock_all
                0x00000000       0x1c C:/Program Files (x86)/Arm GNU Toolchain arm-none-eabi/13.2 Rel1/bin/../lib/gcc/arm-none-eabi/13.2.1/thumb/v7+fp/hard\libg_nano.a(libc_a-findfp.o)
 .text.__fp_unlock_all
                0x00000000       0x1c C:/Program Files (x86)/Arm GNU Toolchain arm-none-eabi/13.2 Rel1/bin/../lib/gcc/arm-none-eabi/13.2.1/thumb/v7+fp/hard\libg_nano.a(libc_a-findfp.o)
 .text          0x00000000        0x0 C:/Program Files (x86)/Arm GNU Toolchain arm-none-eabi/13.2 Rel1/bin/../lib/gcc/arm-none-eabi/13.2.1/thumb/v7+fp/hard\libg_nano.a(libc_a-fvwrite.o)
 .data          0x00000000        0x0 C:/Program Files (x86)/Arm GNU Toolchain arm-none-eabi/13.2 Rel1/bin/../lib/gcc/arm-none-eabi/13.2.1/thumb/v7+fp/hard\libg_nano.a(libc_a-fvwrite.o)
 .bss           0x00000000        0x0 C:/Program Files (x86)/Arm GNU Toolchain arm-none-eabi/13.2 Rel1/bin/../lib/gcc/arm-none-eabi/13.2.1/thumb/v7+fp/hard\libg_nano.a(libc_a-fvwrite.o)
 .text.__sfvwrite_r
                0x00000000      0x29c C:/Program Files (x86)/Arm GNU Toolchain arm-none-eabi/13.2 Rel1/bin/../lib/gcc/arm-none-eabi/13.2.1/thumb/v7+fp/hard\libg_nano.a(libc_a-fvwrite.o)
 .debug_frame   0x00000000       0x3c C:/Program Files (x86)/Arm GNU Toolchain arm-none-eabi/13.2 Rel1/bin/../lib/gcc/arm-none-eabi/13.2.1/thumb/v7+fp/hard\libg_nano.a(libc_a-fvwrite.o)
 .ARM.attributes
                0x00000000       0x2d C:/Program Files (x86)/Arm GNU Toolchain arm-none-eabi/13.2 Rel1/bin/../lib/gcc/arm-none-eabi/13.2.1/thumb/v7+fp/hard\libg_nano.a(libc_a-fvwrite.o)
 .text          0x00000000        0x0 C:/Program Files (x86)/Arm GNU Toolchain arm-none-eabi/13.2 Rel1/bin/../lib/gcc/arm-none-eabi/13.2.1/thumb/v7+fp/hard\libg_nano.a(libc_a-fwalk.o)
 .data          0x00000000        0x0 C:/Program Files (x86)/Arm GNU Toolchain arm-none-eabi/13.2 Rel1/bin/../lib/gcc/arm-none-eabi/13.2.1/thumb/v7+fp/hard\libg_nano.a(libc_a-fwalk.o)
 .bss           0x00000000        0x0 C:/Program Files (x86)/Arm GNU Toolchain arm-none-eabi/13.2 Rel1/bin/../lib/gcc/arm-none-eabi/13.2.1/thumb/v7+fp/hard\libg_nano.a(libc_a-fwalk.o)
 .text          0x00000000        0x0 C:/Program Files (x86)/Arm GNU Toolchain arm-none-eabi/13.2 Rel1/bin/../lib/gcc/arm-none-eabi/13.2.1/thumb/v7+fp/hard\libg_nano.a(libc_a-makebuf.o)
 .data          0x00000000        0x0 C:/Program Files (x86)/Arm GNU Toolchain arm-none-eabi/13.2 Rel1/bin/../lib/gcc/arm-none-eabi/13.2.1/thumb/v7+fp/hard\libg_nano.a(libc_a-makebuf.o)
 .bss           0x00000000        0x0 C:/Program Files (x86)/Arm GNU Toolchain arm-none-eabi/13.2 Rel1/bin/../lib/gcc/arm-none-eabi/13.2.1/thumb/v7+fp/hard\libg_nano.a(libc_a-makebuf.o)
 .text          0x00000000        0x0 C:/Program Files (x86)/Arm GNU Toolchain arm-none-eabi/13.2 Rel1/bin/../lib/gcc/arm-none-eabi/13.2.1/thumb/v7+fp/hard\libg_nano.a(libc_a-putc.o)
 .data          0x00000000        0x0 C:/Program Files (x86)/Arm GNU Toolchain arm-none-eabi/13.2 Rel1/bin/../lib/gcc/arm-none-eabi/13.2.1/thumb/v7+fp/hard\libg_nano.a(libc_a-putc.o)
 .bss           0x00000000        0x0 C:/Program Files (x86)/Arm GNU Toolchain arm-none-eabi/13.2 Rel1/bin/../lib/gcc/arm-none-eabi/13.2.1/thumb/v7+fp/hard\libg_nano.a(libc_a-putc.o)
 .text.putc     0x00000000       0x10 C:/Program Files (x86)/Arm GNU Toolchain arm-none-eabi/13.2 Rel1/bin/../lib/gcc/arm-none-eabi/13.2.1/thumb/v7+fp/hard\libg_nano.a(libc_a-putc.o)
 .text          0x00000000        0x0 C:/Program Files (x86)/Arm GNU Toolchain arm-none-eabi/13.2 Rel1/bin/../lib/gcc/arm-none-eabi/13.2.1/thumb/v7+fp/hard\libg_nano.a(libc_a-stdio.o)
 .data          0x00000000        0x0 C:/Program Files (x86)/Arm GNU Toolchain arm-none-eabi/13.2 Rel1/bin/../lib/gcc/arm-none-eabi/13.2.1/thumb/v7+fp/hard\libg_nano.a(libc_a-stdio.o)
 .bss           0x00000000        0x0 C:/Program Files (x86)/Arm GNU Toolchain arm-none-eabi/13.2 Rel1/bin/../lib/gcc/arm-none-eabi/13.2.1/thumb/v7+fp/hard\libg_nano.a(libc_a-stdio.o)
 .text.__seofread
                0x00000000        0x4 C:/Program Files (x86)/Arm GNU Toolchain arm-none-eabi/13.2 Rel1/bin/../lib/gcc/arm-none-eabi/13.2.1/thumb/v7+fp/hard\libg_nano.a(libc_a-stdio.o)
 .text          0x00000000        0x0 C:/Program Files (x86)/Arm GNU Toolchain arm-none-eabi/13.2 Rel1/bin/../lib/gcc/arm-none-eabi/13.2.1/thumb/v7+fp/hard\libg_nano.a(libc_a-memmove.o)
 .data          0x00000000        0x0 C:/Program Files (x86)/Arm GNU Toolchain arm-none-eabi/13.2 Rel1/bin/../lib/gcc/arm-none-eabi/13.2.1/thumb/v7+fp/hard\libg_nano.a(libc_a-memmove.o)
 .bss           0x00000000        0x0 C:/Program Files (x86)/Arm GNU Toolchain arm-none-eabi/13.2 Rel1/bin/../lib/gcc/arm-none-eabi/13.2.1/thumb/v7+fp/hard\libg_nano.a(libc_a-memmove.o)
 .text          0x00000000        0x0 C:/Program Files (x86)/Arm GNU Toolchain arm-none-eabi/13.2 Rel1/bin/../lib/gcc/arm-none-eabi/13.2.1/thumb/v7+fp/hard\libg_nano.a(libc_a-strncmp.o)
 .data          0x00000000        0x0 C:/Program Files (x86)/Arm GNU Toolchain arm-none-eabi/13.2 Rel1/bin/../lib/gcc/arm-none-eabi/13.2.1/thumb/v7+fp/hard\libg_nano.a(libc_a-strncmp.o)
 .bss           0x00000000        0x0 C:/Program Files (x86)/Arm GNU Toolchain arm-none-eabi/13.2 Rel1/bin/../lib/gcc/arm-none-eabi/13.2.1/thumb/v7+fp/hard\libg_nano.a(libc_a-strncmp.o)
 .text          0x00000000        0x0 C:/Program Files (x86)/Arm GNU Toolchain arm-none-eabi/13.2 Rel1/bin/../lib/gcc/arm-none-eabi/13.2.1/thumb/v7+fp/hard\libg_nano.a(libc_a-signal.o)
 .data          0x00000000        0x0 C:/Program Files (x86)/Arm GNU Toolchain arm-none-eabi/13.2 Rel1/bin/../lib/gcc/arm-none-eabi/13.2.1/thumb/v7+fp/hard\libg_nano.a(libc_a-signal.o)
 .bss           0x00000000        0x0 C:/Program Files (x86)/Arm GNU Toolchain arm-none-eabi/13.2 Rel1/bin/../lib/gcc/arm-none-eabi/13.2.1/thumb/v7+fp/hard\libg_nano.a(libc_a-signal.o)
 .text._init_signal_r
                0x00000000       0x28 C:/Program Files (x86)/Arm GNU Toolchain arm-none-eabi/13.2 Rel1/bin/../lib/gcc/arm-none-eabi/13.2.1/thumb/v7+fp/hard\libg_nano.a(libc_a-signal.o)
 .text._signal_r
                0x00000000       0x30 C:/Program Files (x86)/Arm GNU Toolchain arm-none-eabi/13.2 Rel1/bin/../lib/gcc/arm-none-eabi/13.2.1/thumb/v7+fp/hard\libg_nano.a(libc_a-signal.o)
 .text.__sigtramp_r
                0x00000000       0x48 C:/Program Files (x86)/Arm GNU Toolchain arm-none-eabi/13.2 Rel1/bin/../lib/gcc/arm-none-eabi/13.2.1/thumb/v7+fp/hard\libg_nano.a(libc_a-signal.o)
 .text.signal   0x00000000       0x10 C:/Program Files (x86)/Arm GNU Toolchain arm-none-eabi/13.2 Rel1/bin/../lib/gcc/arm-none-eabi/13.2.1/thumb/v7+fp/hard\libg_nano.a(libc_a-signal.o)
 .text._init_signal
                0x00000000        0xc C:/Program Files (x86)/Arm GNU Toolchain arm-none-eabi/13.2 Rel1/bin/../lib/gcc/arm-none-eabi/13.2.1/thumb/v7+fp/hard\libg_nano.a(libc_a-signal.o)
 .text.__sigtramp
                0x00000000       0x10 C:/Program Files (x86)/Arm GNU Toolchain arm-none-eabi/13.2 Rel1/bin/../lib/gcc/arm-none-eabi/13.2.1/thumb/v7+fp/hard\libg_nano.a(libc_a-signal.o)
 .text          0x00000000        0x0 C:/Program Files (x86)/Arm GNU Toolchain arm-none-eabi/13.2 Rel1/bin/../lib/gcc/arm-none-eabi/13.2.1/thumb/v7+fp/hard\libg_nano.a(libc_a-locale.o)
 .data          0x00000000        0x0 C:/Program Files (x86)/Arm GNU Toolchain arm-none-eabi/13.2 Rel1/bin/../lib/gcc/arm-none-eabi/13.2.1/thumb/v7+fp/hard\libg_nano.a(libc_a-locale.o)
 .bss           0x00000000        0x0 C:/Program Files (x86)/Arm GNU Toolchain arm-none-eabi/13.2 Rel1/bin/../lib/gcc/arm-none-eabi/13.2.1/thumb/v7+fp/hard\libg_nano.a(libc_a-locale.o)
 .text._setlocale_r
                0x00000000       0x3c C:/Program Files (x86)/Arm GNU Toolchain arm-none-eabi/13.2 Rel1/bin/../lib/gcc/arm-none-eabi/13.2.1/thumb/v7+fp/hard\libg_nano.a(libc_a-locale.o)
 .text.__locale_mb_cur_max
                0x00000000        0xc C:/Program Files (x86)/Arm GNU Toolchain arm-none-eabi/13.2 Rel1/bin/../lib/gcc/arm-none-eabi/13.2.1/thumb/v7+fp/hard\libg_nano.a(libc_a-locale.o)
 .text.setlocale
                0x00000000       0x10 C:/Program Files (x86)/Arm GNU Toolchain arm-none-eabi/13.2 Rel1/bin/../lib/gcc/arm-none-eabi/13.2.1/thumb/v7+fp/hard\libg_nano.a(libc_a-locale.o)
 .bss._PathLocale
                0x00000000        0x4 C:/Program Files (x86)/Arm GNU Toolchain arm-none-eabi/13.2 Rel1/bin/../lib/gcc/arm-none-eabi/13.2.1/thumb/v7+fp/hard\libg_nano.a(libc_a-locale.o)
 .text          0x00000000        0x0 C:/Program Files (x86)/Arm GNU Toolchain arm-none-eabi/13.2 Rel1/bin/../lib/gcc/arm-none-eabi/13.2.1/thumb/v7+fp/hard\libg_nano.a(libc_a-closer.o)
 .data          0x00000000        0x0 C:/Program Files (x86)/Arm GNU Toolchain arm-none-eabi/13.2 Rel1/bin/../lib/gcc/arm-none-eabi/13.2.1/thumb/v7+fp/hard\libg_nano.a(libc_a-closer.o)
 .bss           0x00000000        0x0 C:/Program Files (x86)/Arm GNU Toolchain arm-none-eabi/13.2 Rel1/bin/../lib/gcc/arm-none-eabi/13.2.1/thumb/v7+fp/hard\libg_nano.a(libc_a-closer.o)
 .text          0x00000000        0x0 C:/Program Files (x86)/Arm GNU Toolchain arm-none-eabi/13.2 Rel1/bin/../lib/gcc/arm-none-eabi/13.2.1/thumb/v7+fp/hard\libg_nano.a(libc_a-reent.o)
 .data          0x00000000        0x0 C:/Program Files (x86)/Arm GNU Toolchain arm-none-eabi/13.2 Rel1/bin/../lib/gcc/arm-none-eabi/13.2.1/thumb/v7+fp/hard\libg_nano.a(libc_a-reent.o)
 .bss           0x00000000        0x0 C:/Program Files (x86)/Arm GNU Toolchain arm-none-eabi/13.2 Rel1/bin/../lib/gcc/arm-none-eabi/13.2.1/thumb/v7+fp/hard\libg_nano.a(libc_a-reent.o)
 .text._reclaim_reent
                0x00000000       0xac C:/Program Files (x86)/Arm GNU Toolchain arm-none-eabi/13.2 Rel1/bin/../lib/gcc/arm-none-eabi/13.2.1/thumb/v7+fp/hard\libg_nano.a(libc_a-reent.o)
 .text          0x00000000        0x0 C:/Program Files (x86)/Arm GNU Toolchain arm-none-eabi/13.2 Rel1/bin/../lib/gcc/arm-none-eabi/13.2.1/thumb/v7+fp/hard\libg_nano.a(libc_a-fstatr.o)
 .data          0x00000000        0x0 C:/Program Files (x86)/Arm GNU Toolchain arm-none-eabi/13.2 Rel1/bin/../lib/gcc/arm-none-eabi/13.2.1/thumb/v7+fp/hard\libg_nano.a(libc_a-fstatr.o)
 .bss           0x00000000        0x0 C:/Program Files (x86)/Arm GNU Toolchain arm-none-eabi/13.2 Rel1/bin/../lib/gcc/arm-none-eabi/13.2.1/thumb/v7+fp/hard\libg_nano.a(libc_a-fstatr.o)
 .text          0x00000000        0x0 C:/Program Files (x86)/Arm GNU Toolchain arm-none-eabi/13.2 Rel1/bin/../lib/gcc/arm-none-eabi/13.2.1/thumb/v7+fp/hard\libg_nano.a(libc_a-isattyr.o)
 .data          0x00000000        0x0 C:/Program Files (x86)/Arm GNU Toolchain arm-none-eabi/13.2 Rel1/bin/../lib/gcc/arm-none-eabi/13.2.1/thumb/v7+fp/hard\libg_nano.a(libc_a-isattyr.o)
 .bss           0x00000000        0x0 C:/Program Files (x86)/Arm GNU Toolchain arm-none-eabi/13.2 Rel1/bin/../lib/gcc/arm-none-eabi/13.2.1/thumb/v7+fp/hard\libg_nano.a(libc_a-isattyr.o)
 .text          0x00000000        0x0 C:/Program Files (x86)/Arm GNU Toolchain arm-none-eabi/13.2 Rel1/bin/../lib/gcc/arm-none-eabi/13.2.1/thumb/v7+fp/hard\libg_nano.a(libc_a-lseekr.o)
 .data          0x00000000        0x0 C:/Program Files (x86)/Arm GNU Toolchain arm-none-eabi/13.2 Rel1/bin/../lib/gcc/arm-none-eabi/13.2.1/thumb/v7+fp/hard\libg_nano.a(libc_a-lseekr.o)
 .bss           0x00000000        0x0 C:/Program Files (x86)/Arm GNU Toolchain arm-none-eabi/13.2 Rel1/bin/../lib/gcc/arm-none-eabi/13.2.1/thumb/v7+fp/hard\libg_nano.a(libc_a-lseekr.o)
 .text          0x00000000        0x0 C:/Program Files (x86)/Arm GNU Toolchain arm-none-eabi/13.2 Rel1/bin/../lib/gcc/arm-none-eabi/13.2.1/thumb/v7+fp/hard\libg_nano.a(libc_a-readr.o)
 .data          0x00000000        0x0 C:/Program Files (x86)/Arm GNU Toolchain arm-none-eabi/13.2 Rel1/bin/../lib/gcc/arm-none-eabi/13.2.1/thumb/v7+fp/hard\libg_nano.a(libc_a-readr.o)
 .bss           0x00000000        0x0 C:/Program Files (x86)/Arm GNU Toolchain arm-none-eabi/13.2 Rel1/bin/../lib/gcc/arm-none-eabi/13.2.1/thumb/v7+fp/hard\libg_nano.a(libc_a-readr.o)
 .text          0x00000000        0x0 C:/Program Files (x86)/Arm GNU Toolchain arm-none-eabi/13.2 Rel1/bin/../lib/gcc/arm-none-eabi/13.2.1/thumb/v7+fp/hard\libg_nano.a(libc_a-signalr.o)
 .data          0x00000000        0x0 C:/Program Files (x86)/Arm GNU Toolchain arm-none-eabi/13.2 Rel1/bin/../lib/gcc/arm-none-eabi/13.2.1/thumb/v7+fp/hard\libg_nano.a(libc_a-signalr.o)
 .bss           0x00000000        0x0 C:/Program Files (x86)/Arm GNU Toolchain arm-none-eabi/13.2 Rel1/bin/../lib/gcc/arm-none-eabi/13.2.1/thumb/v7+fp/hard\libg_nano.a(libc_a-signalr.o)
 .text          0x00000000        0x0 C:/Program Files (x86)/Arm GNU Toolchain arm-none-eabi/13.2 Rel1/bin/../lib/gcc/arm-none-eabi/13.2.1/thumb/v7+fp/hard\libg_nano.a(libc_a-writer.o)
 .data          0x00000000        0x0 C:/Program Files (x86)/Arm GNU Toolchain arm-none-eabi/13.2 Rel1/bin/../lib/gcc/arm-none-eabi/13.2.1/thumb/v7+fp/hard\libg_nano.a(libc_a-writer.o)
 .bss           0x00000000        0x0 C:/Program Files (x86)/Arm GNU Toolchain arm-none-eabi/13.2 Rel1/bin/../lib/gcc/arm-none-eabi/13.2.1/thumb/v7+fp/hard\libg_nano.a(libc_a-writer.o)
 .text          0x00000000       0x14 C:/Program Files (x86)/Arm GNU Toolchain arm-none-eabi/13.2 Rel1/bin/../lib/gcc/arm-none-eabi/13.2.1/thumb/v7+fp/hard\libg_nano.a(libc_a-strcmp.o)
 .data          0x00000000        0x0 C:/Program Files (x86)/Arm GNU Toolchain arm-none-eabi/13.2 Rel1/bin/../lib/gcc/arm-none-eabi/13.2.1/thumb/v7+fp/hard\libg_nano.a(libc_a-strcmp.o)
 .bss           0x00000000        0x0 C:/Program Files (x86)/Arm GNU Toolchain arm-none-eabi/13.2 Rel1/bin/../lib/gcc/arm-none-eabi/13.2.1/thumb/v7+fp/hard\libg_nano.a(libc_a-strcmp.o)
 .ARM.extab     0x00000000        0x0 C:/Program Files (x86)/Arm GNU Toolchain arm-none-eabi/13.2 Rel1/bin/../lib/gcc/arm-none-eabi/13.2.1/thumb/v7+fp/hard\libg_nano.a(libc_a-strcmp.o)
 .ARM.exidx     0x00000000        0x8 C:/Program Files (x86)/Arm GNU Toolchain arm-none-eabi/13.2 Rel1/bin/../lib/gcc/arm-none-eabi/13.2.1/thumb/v7+fp/hard\libg_nano.a(libc_a-strcmp.o)
 .debug_line_str
                0x00000000       0xe7 C:/Program Files (x86)/Arm GNU Toolchain arm-none-eabi/13.2 Rel1/bin/../lib/gcc/arm-none-eabi/13.2.1/thumb/v7+fp/hard\libg_nano.a(libc_a-strcmp.o)
 .debug_frame   0x00000000       0x20 C:/Program Files (x86)/Arm GNU Toolchain arm-none-eabi/13.2 Rel1/bin/../lib/gcc/arm-none-eabi/13.2.1/thumb/v7+fp/hard\libg_nano.a(libc_a-strcmp.o)
 .ARM.attributes
                0x00000000       0x19 C:/Program Files (x86)/Arm GNU Toolchain arm-none-eabi/13.2 Rel1/bin/../lib/gcc/arm-none-eabi/13.2.1/thumb/v7+fp/hard\libg_nano.a(libc_a-strcmp.o)
 .text          0x00000000        0x0 C:/Program Files (x86)/Arm GNU Toolchain arm-none-eabi/13.2 Rel1/bin/../lib/gcc/arm-none-eabi/13.2.1/thumb/v7+fp/hard\libg_nano.a(libm_a-s_nan.o)
 .data          0x00000000        0x0 C:/Program Files (x86)/Arm GNU Toolchain arm-none-eabi/13.2 Rel1/bin/../lib/gcc/arm-none-eabi/13.2.1/thumb/v7+fp/hard\libg_nano.a(libm_a-s_nan.o)
 .bss           0x00000000        0x0 C:/Program Files (x86)/Arm GNU Toolchain arm-none-eabi/13.2 Rel1/bin/../lib/gcc/arm-none-eabi/13.2.1/thumb/v7+fp/hard\libg_nano.a(libm_a-s_nan.o)
 .text          0x00000000        0x0 C:/Program Files (x86)/Arm GNU Toolchain arm-none-eabi/13.2 Rel1/bin/../lib/gcc/arm-none-eabi/13.2.1/thumb/v7+fp/hard\libg_nano.a(libc_a-callocr.o)
 .data          0x00000000        0x0 C:/Program Files (x86)/Arm GNU Toolchain arm-none-eabi/13.2 Rel1/bin/../lib/gcc/arm-none-eabi/13.2.1/thumb/v7+fp/hard\libg_nano.a(libc_a-callocr.o)
 .bss           0x00000000        0x0 C:/Program Files (x86)/Arm GNU Toolchain arm-none-eabi/13.2 Rel1/bin/../lib/gcc/arm-none-eabi/13.2.1/thumb/v7+fp/hard\libg_nano.a(libc_a-callocr.o)
 .text          0x00000000        0x0 C:/Program Files (x86)/Arm GNU Toolchain arm-none-eabi/13.2 Rel1/bin/../lib/gcc/arm-none-eabi/13.2.1/thumb/v7+fp/hard\libg_nano.a(libc_a-gdtoa-gethex.o)
 .data          0x00000000        0x0 C:/Program Files (x86)/Arm GNU Toolchain arm-none-eabi/13.2 Rel1/bin/../lib/gcc/arm-none-eabi/13.2.1/thumb/v7+fp/hard\libg_nano.a(libc_a-gdtoa-gethex.o)
 .bss           0x00000000        0x0 C:/Program Files (x86)/Arm GNU Toolchain arm-none-eabi/13.2 Rel1/bin/../lib/gcc/arm-none-eabi/13.2.1/thumb/v7+fp/hard\libg_nano.a(libc_a-gdtoa-gethex.o)
 .text          0x00000000        0x0 C:/Program Files (x86)/Arm GNU Toolchain arm-none-eabi/13.2 Rel1/bin/../lib/gcc/arm-none-eabi/13.2.1/thumb/v7+fp/hard\libg_nano.a(libc_a-gdtoa-hexnan.o)
 .data          0x00000000        0x0 C:/Program Files (x86)/Arm GNU Toolchain arm-none-eabi/13.2 Rel1/bin/../lib/gcc/arm-none-eabi/13.2.1/thumb/v7+fp/hard\libg_nano.a(libc_a-gdtoa-hexnan.o)
 .bss           0x00000000        0x0 C:/Program Files (x86)/Arm GNU Toolchain arm-none-eabi/13.2 Rel1/bin/../lib/gcc/arm-none-eabi/13.2.1/thumb/v7+fp/hard\libg_nano.a(libc_a-gdtoa-hexnan.o)
 .text          0x00000000        0x0 C:/Program Files (x86)/Arm GNU Toolchain arm-none-eabi/13.2 Rel1/bin/../lib/gcc/arm-none-eabi/13.2.1/thumb/v7+fp/hard\libg_nano.a(libc_a-mbtowc_r.o)
 .data          0x00000000        0x0 C:/Program Files (x86)/Arm GNU Toolchain arm-none-eabi/13.2 Rel1/bin/../lib/gcc/arm-none-eabi/13.2.1/thumb/v7+fp/hard\libg_nano.a(libc_a-mbtowc_r.o)
 .bss           0x00000000        0x0 C:/Program Files (x86)/Arm GNU Toolchain arm-none-eabi/13.2 Rel1/bin/../lib/gcc/arm-none-eabi/13.2.1/thumb/v7+fp/hard\libg_nano.a(libc_a-mbtowc_r.o)
 .text._mbtowc_r
                0x00000000       0x14 C:/Program Files (x86)/Arm GNU Toolchain arm-none-eabi/13.2 Rel1/bin/../lib/gcc/arm-none-eabi/13.2.1/thumb/v7+fp/hard\libg_nano.a(libc_a-mbtowc_r.o)
 .text          0x00000000        0x0 C:/Program Files (x86)/Arm GNU Toolchain arm-none-eabi/13.2 Rel1/bin/../lib/gcc/arm-none-eabi/13.2.1/thumb/v7+fp/hard\libg_nano.a(libc_a-reallocr.o)
 .data          0x00000000        0x0 C:/Program Files (x86)/Arm GNU Toolchain arm-none-eabi/13.2 Rel1/bin/../lib/gcc/arm-none-eabi/13.2.1/thumb/v7+fp/hard\libg_nano.a(libc_a-reallocr.o)
 .bss           0x00000000        0x0 C:/Program Files (x86)/Arm GNU Toolchain arm-none-eabi/13.2 Rel1/bin/../lib/gcc/arm-none-eabi/13.2.1/thumb/v7+fp/hard\libg_nano.a(libc_a-reallocr.o)
 .text          0x00000000        0x0 C:/Program Files (x86)/Arm GNU Toolchain arm-none-eabi/13.2 Rel1/bin/../lib/gcc/arm-none-eabi/13.2.1/thumb/v7+fp/hard\libg_nano.a(libc_a-wctomb_r.o)
 .data          0x00000000        0x0 C:/Program Files (x86)/Arm GNU Toolchain arm-none-eabi/13.2 Rel1/bin/../lib/gcc/arm-none-eabi/13.2.1/thumb/v7+fp/hard\libg_nano.a(libc_a-wctomb_r.o)
 .bss           0x00000000        0x0 C:/Program Files (x86)/Arm GNU Toolchain arm-none-eabi/13.2 Rel1/bin/../lib/gcc/arm-none-eabi/13.2.1/thumb/v7+fp/hard\libg_nano.a(libc_a-wctomb_r.o)
 .text._wctomb_r
                0x00000000       0x14 C:/Program Files (x86)/Arm GNU Toolchain arm-none-eabi/13.2 Rel1/bin/../lib/gcc/arm-none-eabi/13.2.1/thumb/v7+fp/hard\libg_nano.a(libc_a-wctomb_r.o)
 .text          0x00000000        0x0 C:/Program Files (x86)/Arm GNU Toolchain arm-none-eabi/13.2 Rel1/bin/../lib/gcc/arm-none-eabi/13.2.1/thumb/v7+fp/hard\libg_nano.a(libc_a-msizer.o)
 .data          0x00000000        0x0 C:/Program Files (x86)/Arm GNU Toolchain arm-none-eabi/13.2 Rel1/bin/../lib/gcc/arm-none-eabi/13.2.1/thumb/v7+fp/hard\libg_nano.a(libc_a-msizer.o)
 .bss           0x00000000        0x0 C:/Program Files (x86)/Arm GNU Toolchain arm-none-eabi/13.2 Rel1/bin/../lib/gcc/arm-none-eabi/13.2.1/thumb/v7+fp/hard\libg_nano.a(libc_a-msizer.o)
 .data          0x00000000        0x0 C:/Program Files (x86)/Arm GNU Toolchain arm-none-eabi/13.2 Rel1/bin/../lib/gcc/arm-none-eabi/13.2.1/thumb/v7+fp/hard\libgcc.a(_udivsi3.o)
 .bss           0x00000000        0x0 C:/Program Files (x86)/Arm GNU Toolchain arm-none-eabi/13.2 Rel1/bin/../lib/gcc/arm-none-eabi/13.2.1/thumb/v7+fp/hard\libgcc.a(_udivsi3.o)
 .data          0x00000000        0x0 C:/Program Files (x86)/Arm GNU Toolchain arm-none-eabi/13.2 Rel1/bin/../lib/gcc/arm-none-eabi/13.2.1/thumb/v7+fp/hard\libgcc.a(_divsi3.o)
 .bss           0x00000000        0x0 C:/Program Files (x86)/Arm GNU Toolchain arm-none-eabi/13.2 Rel1/bin/../lib/gcc/arm-none-eabi/13.2.1/thumb/v7+fp/hard\libgcc.a(_divsi3.o)
 .data          0x00000000        0x0 C:/Program Files (x86)/Arm GNU Toolchain arm-none-eabi/13.2 Rel1/bin/../lib/gcc/arm-none-eabi/13.2.1/thumb/v7+fp/hard\libgcc.a(_arm_addsubdf3.o)
 .bss           0x00000000        0x0 C:/Program Files (x86)/Arm GNU Toolchain arm-none-eabi/13.2 Rel1/bin/../lib/gcc/arm-none-eabi/13.2.1/thumb/v7+fp/hard\libgcc.a(_arm_addsubdf3.o)
 .text          0x00000000        0x0 C:/Program Files (x86)/Arm GNU Toolchain arm-none-eabi/13.2 Rel1/bin/../lib/gcc/arm-none-eabi/13.2.1/thumb/v7+fp/hard\libgcc.a(_fixdfdi.o)
 .data          0x00000000        0x0 C:/Program Files (x86)/Arm GNU Toolchain arm-none-eabi/13.2 Rel1/bin/../lib/gcc/arm-none-eabi/13.2.1/thumb/v7+fp/hard\libgcc.a(_fixdfdi.o)
 .bss           0x00000000        0x0 C:/Program Files (x86)/Arm GNU Toolchain arm-none-eabi/13.2 Rel1/bin/../lib/gcc/arm-none-eabi/13.2.1/thumb/v7+fp/hard\libgcc.a(_fixdfdi.o)
 .text          0x00000000        0x0 C:/Program Files (x86)/Arm GNU Toolchain arm-none-eabi/13.2 Rel1/bin/../lib/gcc/arm-none-eabi/13.2.1/thumb/v7+fp/hard\libgcc.a(_fixunsdfdi.o)
 .data          0x00000000        0x0 C:/Program Files (x86)/Arm GNU Toolchain arm-none-eabi/13.2 Rel1/bin/../lib/gcc/arm-none-eabi/13.2.1/thumb/v7+fp/hard\libgcc.a(_fixunsdfdi.o)
 .bss           0x00000000        0x0 C:/Program Files (x86)/Arm GNU Toolchain arm-none-eabi/13.2 Rel1/bin/../lib/gcc/arm-none-eabi/13.2.1/thumb/v7+fp/hard\libgcc.a(_fixunsdfdi.o)

Memory Configuration

Name             Origin             Length             Attributes
ATCM             0x00000000         0x00080000
BTCM             0x00100000         0x00010000
SYSTEM_RAM       0x10000000         0x00200000
SYSTEM_RAM_MIRROR 0x30000000         0x00200000
xSPI0_CS0_SPACE_MIRROR 0x40000000         0x04000000
xSPI0_CS1_SPACE_MIRROR 0x44000000         0x04000000
xSPI1_CS0_SPACE_MIRROR 0x48000000         0x04000000
xSPI1_CS1_SPACE_MIRROR 0x4c000000         0x04000000
CS0_SPACE_MIRROR 0x50000000         0x04000000
CS2_SPACE_MIRROR 0x54000000         0x04000000
CS3_SPACE_MIRROR 0x58000000         0x04000000
CS5_SPACE_MIRROR 0x5c000000         0x04000000
xSPI0_CS0_SPACE  0x60000000         0x04000000
xSPI0_CS1_SPACE  0x64000000         0x04000000
xSPI1_CS0_SPACE  0x68000000         0x04000000
xSPI1_CS1_SPACE  0x6c000000         0x04000000
CS0_SPACE        0x70000000         0x04000000
CS2_SPACE        0x74000000         0x04000000
CS3_SPACE        0x78000000         0x04000000
CS5_SPACE        0x7c000000         0x04000000
RAM_TEXT         0x00000000         0x00080000
RAM_DATA         0x00000000         0x00080000
LOADER_TEXT_STACK 0x00100000         0x00010000
LOADER_DATA_STACK 0x00100000         0x00010000
FLASH_CONTENTS   0x60000000         0x04000000
NONCACHE         0x30000000         0x00200000
*default*        0x00000000         0xffffffff

Linker script and memory map

START GROUP
LOAD ./src/hal_entry.o
LOAD ./src/syscall.o
LOAD ./rzt_gen/common_data.o
LOAD ./rzt_gen/hal_data.o
LOAD ./rzt_gen/main.o
LOAD ./rzt_gen/pin_data.o
LOAD ./rzt_gen/vector_data.o
LOAD ./rzt/fsp/src/r_shared_memory/r_shared_memory.o
LOAD ./rzt/fsp/src/r_sci_uart/r_sci_uart.o
LOAD ./rzt/fsp/src/r_ioport/r_ioport.o
LOAD ./rzt/fsp/src/r_icu_inter_cpu_irq/r_icu_inter_cpu_irq.o
LOAD ./rzt/fsp/src/r_gpt/r_gpt.o
LOAD ./rzt/fsp/src/bsp/mcu/rzt2m/bsp_irq_sense.o
LOAD ./rzt/fsp/src/bsp/mcu/rzt2m/bsp_loader_param.o
LOAD ./rzt/fsp/src/bsp/mcu/all/cr/bsp_cache_core.o
LOAD ./rzt/fsp/src/bsp/mcu/all/cr/bsp_delay_core.o
LOAD ./rzt/fsp/src/bsp/mcu/all/cr/bsp_irq_core.o
LOAD ./rzt/fsp/src/bsp/mcu/all/bsp_address_expander.o
LOAD ./rzt/fsp/src/bsp/mcu/all/bsp_cache.o
LOAD ./rzt/fsp/src/bsp/mcu/all/bsp_clocks.o
LOAD ./rzt/fsp/src/bsp/mcu/all/bsp_common.o
LOAD ./rzt/fsp/src/bsp/mcu/all/bsp_ddr.o
LOAD ./rzt/fsp/src/bsp/mcu/all/bsp_ddr_fw_param.o
LOAD ./rzt/fsp/src/bsp/mcu/all/bsp_delay.o
LOAD ./rzt/fsp/src/bsp/mcu/all/bsp_io.o
LOAD ./rzt/fsp/src/bsp/mcu/all/bsp_irq.o
LOAD ./rzt/fsp/src/bsp/mcu/all/bsp_register_protection.o
LOAD ./rzt/fsp/src/bsp/mcu/all/bsp_reset.o
LOAD ./rzt/fsp/src/bsp/mcu/all/bsp_sbrk.o
LOAD ./rzt/fsp/src/bsp/mcu/all/bsp_semaphore.o
LOAD ./rzt/fsp/src/bsp/mcu/all/bsp_slave_stop.o
LOAD ./rzt/fsp/src/bsp/mcu/all/bsp_tzc400.o
LOAD ./rzt/fsp/src/bsp/cmsis/Device/RENESAS/Source/cr/startup_core.o
LOAD ./rzt/fsp/src/bsp/cmsis/Device/RENESAS/Source/cr/system_core.o
LOAD ./rzt/fsp/src/bsp/cmsis/Device/RENESAS/Source/startup.o
LOAD ./rzt/fsp/src/bsp/cmsis/Device/RENESAS/Source/system.o
LOAD ./rzt/board/rzt2m_rsk/board_init.o
LOAD ./rzt/board/rzt2m_rsk/board_leds.o
LOAD ./coremark/core_list_join.o
LOAD ./coremark/core_main.o
LOAD ./coremark/core_matrix.o
LOAD ./coremark/core_portme.o
LOAD ./coremark/core_state.o
LOAD ./coremark/core_util.o
LOAD E:/RS_workspace/rzt2m_coremark_fsp220_cpu1/Debug/secondary.o
END GROUP
START GROUP
END GROUP
START GROUP
LOAD C:/Program Files (x86)/Arm GNU Toolchain arm-none-eabi/13.2 Rel1/bin/../lib/gcc/arm-none-eabi/13.2.1/thumb/v7+fp/hard\libgcc.a
LOAD C:/Program Files (x86)/Arm GNU Toolchain arm-none-eabi/13.2 Rel1/bin/../lib/gcc/arm-none-eabi/13.2.1/thumb/v7+fp/hard\libg_nano.a
LOAD C:/Program Files (x86)/Arm GNU Toolchain arm-none-eabi/13.2 Rel1/bin/../lib/gcc/arm-none-eabi/13.2.1/thumb/v7+fp/hard\libc_nano.a
END GROUP
START GROUP
LOAD C:/Program Files (x86)/Arm GNU Toolchain arm-none-eabi/13.2 Rel1/bin/../lib/gcc/arm-none-eabi/13.2.1/thumb/v7+fp/hard\libgcc.a
LOAD C:/Program Files (x86)/Arm GNU Toolchain arm-none-eabi/13.2 Rel1/bin/../lib/gcc/arm-none-eabi/13.2.1/thumb/v7+fp/hard\libc_nano.a
LOAD C:/Program Files (x86)/Arm GNU Toolchain arm-none-eabi/13.2 Rel1/bin/../lib/gcc/arm-none-eabi/13.2.1/thumb/v7+fp/hard\libnosys.a
END GROUP
START GROUP
LOAD C:/Program Files (x86)/Arm GNU Toolchain arm-none-eabi/13.2 Rel1/bin/../lib/gcc/arm-none-eabi/13.2.1/thumb/v7+fp/hard\libgcc.a
LOAD C:/Program Files (x86)/Arm GNU Toolchain arm-none-eabi/13.2 Rel1/bin/../lib/gcc/arm-none-eabi/13.2.1/thumb/v7+fp/hard\libc_nano.a
LOAD C:/Program Files (x86)/Arm GNU Toolchain arm-none-eabi/13.2 Rel1/bin/../lib/gcc/arm-none-eabi/13.2.1/thumb/v7+fp/hard\libnosys.a
END GROUP
                0x00000000                        ATCM_START = 0x0
                0x00080000                        ATCM_LENGTH = 0x80000
                0x00100000                        BTCM_START = 0x100000
                0x00010000                        BTCM_LENGTH = 0x10000
                0x10000000                        SYSTEM_RAM_START = 0x10000000
                0x00200000                        SYSTEM_RAM_LENGTH = 0x200000
                0x30000000                        SYSTEM_RAM_MIRROR_START = 0x30000000
                0x00200000                        SYSTEM_RAM_MIRROR_LENGTH = 0x200000
                0x40000000                        xSPI0_CS0_SPACE_MIRROR_START = 0x40000000
                0x04000000                        xSPI0_CS0_SPACE_MIRROR_LENGTH = 0x4000000
                0x44000000                        xSPI0_CS1_SPACE_MIRROR_START = 0x44000000
                0x04000000                        xSPI0_CS1_SPACE_MIRROR_LENGTH = 0x4000000
                0x48000000                        xSPI1_CS0_SPACE_MIRROR_START = 0x48000000
                0x04000000                        xSPI1_CS0_SPACE_MIRROR_LENGTH = 0x4000000
                0x4c000000                        xSPI1_CS1_SPACE_MIRROR_START = 0x4c000000
                0x04000000                        xSPI1_CS1_SPACE_MIRROR_LENGTH = 0x4000000
                0x50000000                        CS0_SPACE_MIRROR_START = 0x50000000
                0x04000000                        CS0_SPACE_MIRROR_LENGTH = 0x4000000
                0x54000000                        CS2_SPACE_MIRROR_START = 0x54000000
                0x04000000                        CS2_SPACE_MIRROR_LENGTH = 0x4000000
                0x58000000                        CS3_SPACE_MIRROR_START = 0x58000000
                0x04000000                        CS3_SPACE_MIRROR_LENGTH = 0x4000000
                0x5c000000                        CS5_SPACE_MIRROR_START = 0x5c000000
                0x04000000                        CS5_SPACE_MIRROR_LENGTH = 0x4000000
                0x60000000                        xSPI0_CS0_SPACE_START = 0x60000000
                0x04000000                        xSPI0_CS0_SPACE_LENGTH = 0x4000000
                0x64000000                        xSPI0_CS1_SPACE_START = 0x64000000
                0x04000000                        xSPI0_CS1_SPACE_LENGTH = 0x4000000
                0x68000000                        xSPI1_CS0_SPACE_START = 0x68000000
                0x04000000                        xSPI1_CS0_SPACE_LENGTH = 0x4000000
                0x6c000000                        xSPI1_CS1_SPACE_START = 0x6c000000
                0x04000000                        xSPI1_CS1_SPACE_LENGTH = 0x4000000
                0x70000000                        CS0_SPACE_START = 0x70000000
                0x04000000                        CS0_SPACE_LENGTH = 0x4000000
                0x74000000                        CS2_SPACE_START = 0x74000000
                0x04000000                        CS2_SPACE_LENGTH = 0x4000000
                0x78000000                        CS3_SPACE_START = 0x78000000
                0x04000000                        CS3_SPACE_LENGTH = 0x4000000
                0x7c000000                        CS5_SPACE_START = 0x7c000000
                0x04000000                        CS5_SPACE_LENGTH = 0x4000000
                0x00000001                        CR52_0 = 0x1
                0x00000000                        ATCM_PRV_START = DEFINED (ATCM_START)?ATCM_START:0x0
                0x00080000                        ATCM_PRV_LENGTH = DEFINED (ATCM_LENGTH)?ATCM_LENGTH:0x0
                0x00100000                        BTCM_PRV_START = DEFINED (BTCM_START)?BTCM_START:0x0
                0x00010000                        BTCM_PRV_LENGTH = DEFINED (BTCM_LENGTH)?BTCM_LENGTH:0x0
                0x10000000                        SYSTEM_RAM_PRV_START = DEFINED (SYSTEM_RAM_START)?SYSTEM_RAM_START:0x0
                0x00200000                        SYSTEM_RAM_PRV_LENGTH = DEFINED (SYSTEM_RAM_LENGTH)?SYSTEM_RAM_LENGTH:0x0
                0x30000000                        SYSTEM_RAM_MIRROR_PRV_START = DEFINED (SYSTEM_RAM_MIRROR_START)?SYSTEM_RAM_MIRROR_START:0x0
                0x00200000                        SYSTEM_RAM_MIRROR_PRV_LENGTH = DEFINED (SYSTEM_RAM_MIRROR_LENGTH)?SYSTEM_RAM_MIRROR_LENGTH:0x0
                0x40000000                        xSPI0_CS0_SPACE_MIRROR_PRV_START = DEFINED (xSPI0_CS0_SPACE_MIRROR_START)?xSPI0_CS0_SPACE_MIRROR_START:0x0
                0x04000000                        xSPI0_CS0_SPACE_MIRROR_PRV_LENGTH = DEFINED (xSPI0_CS0_SPACE_MIRROR_LENGTH)?xSPI0_CS0_SPACE_MIRROR_LENGTH:0x0
                0x44000000                        xSPI0_CS1_SPACE_MIRROR_PRV_START = DEFINED (xSPI0_CS1_SPACE_MIRROR_START)?xSPI0_CS1_SPACE_MIRROR_START:0x0
                0x04000000                        xSPI0_CS1_SPACE_MIRROR_PRV_LENGTH = DEFINED (xSPI0_CS1_SPACE_MIRROR_LENGTH)?xSPI0_CS1_SPACE_MIRROR_LENGTH:0x0
                0x48000000                        xSPI1_CS0_SPACE_MIRROR_PRV_START = DEFINED (xSPI1_CS0_SPACE_MIRROR_START)?xSPI1_CS0_SPACE_MIRROR_START:0x0
                0x04000000                        xSPI1_CS0_SPACE_MIRROR_PRV_LENGTH = DEFINED (xSPI1_CS0_SPACE_MIRROR_LENGTH)?xSPI1_CS0_SPACE_MIRROR_LENGTH:0x0
                0x4c000000                        xSPI1_CS1_SPACE_MIRROR_PRV_START = DEFINED (xSPI1_CS1_SPACE_MIRROR_START)?xSPI1_CS1_SPACE_MIRROR_START:0x0
                0x04000000                        xSPI1_CS1_SPACE_MIRROR_PRV_LENGTH = DEFINED (xSPI1_CS1_SPACE_MIRROR_LENGTH)?xSPI1_CS1_SPACE_MIRROR_LENGTH:0x0
                0x50000000                        CS0_SPACE_MIRROR_PRV_START = DEFINED (CS0_SPACE_MIRROR_START)?CS0_SPACE_MIRROR_START:0x0
                0x04000000                        CS0_SPACE_MIRROR_PRV_LENGTH = DEFINED (CS0_SPACE_MIRROR_LENGTH)?CS0_SPACE_MIRROR_LENGTH:0x0
                0x54000000                        CS2_SPACE_MIRROR_PRV_START = DEFINED (CS2_SPACE_MIRROR_START)?CS2_SPACE_MIRROR_START:0x0
                0x04000000                        CS2_SPACE_MIRROR_PRV_LENGTH = DEFINED (CS2_SPACE_MIRROR_LENGTH)?CS2_SPACE_MIRROR_LENGTH:0x0
                0x58000000                        CS3_SPACE_MIRROR_PRV_START = DEFINED (CS3_SPACE_MIRROR_START)?CS3_SPACE_MIRROR_START:0x0
                0x04000000                        CS3_SPACE_MIRROR_PRV_LENGTH = DEFINED (CS3_SPACE_MIRROR_LENGTH)?CS3_SPACE_MIRROR_LENGTH:0x0
                0x5c000000                        CS5_SPACE_MIRROR_PRV_START = DEFINED (CS5_SPACE_MIRROR_START)?CS5_SPACE_MIRROR_START:0x0
                0x04000000                        CS5_SPACE_MIRROR_PRV_LENGTH = DEFINED (CS5_SPACE_MIRROR_LENGTH)?CS5_SPACE_MIRROR_LENGTH:0x0
                0x60000000                        xSPI0_CS0_SPACE_PRV_START = DEFINED (xSPI0_CS0_SPACE_START)?xSPI0_CS0_SPACE_START:0x0
                0x04000000                        xSPI0_CS0_SPACE_PRV_LENGTH = DEFINED (xSPI0_CS0_SPACE_LENGTH)?xSPI0_CS0_SPACE_LENGTH:0x0
                0x64000000                        xSPI0_CS1_SPACE_PRV_START = DEFINED (xSPI0_CS1_SPACE_START)?xSPI0_CS1_SPACE_START:0x0
                0x04000000                        xSPI0_CS1_SPACE_PRV_LENGTH = DEFINED (xSPI0_CS1_SPACE_LENGTH)?xSPI0_CS1_SPACE_LENGTH:0x0
                0x68000000                        xSPI1_CS0_SPACE_PRV_START = DEFINED (xSPI1_CS0_SPACE_START)?xSPI1_CS0_SPACE_START:0x0
                0x04000000                        xSPI1_CS0_SPACE_PRV_LENGTH = DEFINED (xSPI1_CS0_SPACE_LENGTH)?xSPI1_CS0_SPACE_LENGTH:0x0
                0x6c000000                        xSPI1_CS1_SPACE_PRV_START = DEFINED (xSPI1_CS1_SPACE_START)?xSPI1_CS1_SPACE_START:0x0
                0x04000000                        xSPI1_CS1_SPACE_PRV_LENGTH = DEFINED (xSPI1_CS1_SPACE_LENGTH)?xSPI1_CS1_SPACE_LENGTH:0x0
                0x70000000                        CS0_SPACE_PRV_START = DEFINED (CS0_SPACE_START)?CS0_SPACE_START:0x0
                0x04000000                        CS0_SPACE_PRV_LENGTH = DEFINED (CS0_SPACE_LENGTH)?CS0_SPACE_LENGTH:0x0
                0x74000000                        CS2_SPACE_PRV_START = DEFINED (CS2_SPACE_START)?CS2_SPACE_START:0x0
                0x04000000                        CS2_SPACE_PRV_LENGTH = DEFINED (CS2_SPACE_LENGTH)?CS2_SPACE_LENGTH:0x0
                0x78000000                        CS3_SPACE_PRV_START = DEFINED (CS3_SPACE_START)?CS3_SPACE_START:0x0
                0x04000000                        CS3_SPACE_PRV_LENGTH = DEFINED (CS3_SPACE_LENGTH)?CS3_SPACE_LENGTH:0x0
                0x7c000000                        CS5_SPACE_PRV_START = DEFINED (CS5_SPACE_START)?CS5_SPACE_START:0x0
                0x04000000                        CS5_SPACE_PRV_LENGTH = DEFINED (CS5_SPACE_LENGTH)?CS5_SPACE_LENGTH:0x0
                0x00000001                        _RZT_ORDINAL = ((0x40000000 == xSPI0_CS0_SPACE_PRV_START) || (0x60000000 == xSPI0_CS0_SPACE_PRV_START))?0x1:0x2
                0x00000001                        HAS_SYSTEM_RAM_MIRROR = DEFINED (SYSTEM_RAM_MIRROR_START)?0x1:0x0
                0x10000000                        SYSTEM_RAM_ALIGN_START = ALIGN (SYSTEM_RAM_PRV_START, 0x20000)
                0x00200000                        SYSTEM_RAM_ALIGN_LENGTH = (SYSTEM_RAM_PRV_LENGTH - (SYSTEM_RAM_PRV_LENGTH % 0x20000))
                0x20000000                        SYSTEM_RAM_MIRROR_OFFSET = (0x0 == HAS_SYSTEM_RAM_MIRROR)?(DEFINED (CR52_0) || DEFINED (CR52_1))?0x0:0x200000:0x20000000
                0x60000000                        xSPI0_CS0_SPACE_ALIGN_START = ALIGN (xSPI0_CS0_SPACE_PRV_START, 0x20000)
                0x04000000                        xSPI0_CS0_SPACE_ALIGN_LENGTH = (xSPI0_CS0_SPACE_PRV_LENGTH - (xSPI0_CS0_SPACE_PRV_LENGTH % 0x20000))
                0x00000000                        RAM_START = ((0x1 == _RZT_ORDINAL) && DEFINED (CR52_0))?ATCM_PRV_START:SYSTEM_RAM_ALIGN_START
                0x00080000                        RAM_LENGTH = ((0x1 == _RZT_ORDINAL) && DEFINED (CR52_0))?ATCM_PRV_LENGTH:SYSTEM_RAM_ALIGN_LENGTH
                0x00100000                        LOADER_START = ((0x1 == _RZT_ORDINAL) && DEFINED (CR52_0))?BTCM_PRV_START:SYSTEM_RAM_ALIGN_START
                0x00010000                        LOADER_LENGTH = ((0x1 == _RZT_ORDINAL) && DEFINED (CR52_0))?BTCM_PRV_LENGTH:SYSTEM_RAM_ALIGN_LENGTH
                0x60000000                        ROM_START = (0x1 == _RZT_ORDINAL)?xSPI0_CS0_SPACE_ALIGN_START:SYSTEM_RAM_ALIGN_START
                0x04000000                        ROM_LENGTH = (0x1 == _RZT_ORDINAL)?xSPI0_CS0_SPACE_ALIGN_LENGTH:SYSTEM_RAM_ALIGN_LENGTH
                0x60000000                        LOADER_PARAM_ADDRESS = (0x1 == _RZT_ORDINAL)?xSPI0_CS0_SPACE_ALIGN_START:_loader_text_start
                0x0000004c                        FLASH_CONTENTS_OFFSET = (0x0 == HAS_SYSTEM_RAM_MIRROR)?0x50:0x4c
                0x6000004c                        FLASH_CONTENTS_ADDRESS = (0x1 == _RZT_ORDINAL)?(LOADER_PARAM_ADDRESS + FLASH_CONTENTS_OFFSET):_loader_text_start
                0x6000bdf4                        NONCACHE_FLASH_CONTENTS_ADDRESS = (0x1 == _RZT_ORDINAL)?flash_contents_end:(RAM_START + 0x10000)
                0x00000000                        INTVEC_ADDRESS = RAM_START
                0x00000800                        IMAGE_INFO_ADDRESS = (RAM_START + 0x800)
                0x00102000                        LOADER_TEXT_ADDRESS = ((0x1 == _RZT_ORDINAL) && DEFINED (CR52_0))?(LOADER_START + 0x2000):(LOADER_START + 0x1000)
                0x00000100                        TEXT_ADDRESS = (0x1 == _RZT_ORDINAL)?DEFINED (CR52_0)?(RAM_START + 0x100):(RAM_START + 0x10000):((0x0 == HAS_SYSTEM_RAM_MIRROR) && (DEFINED (CR52_0) || DEFINED (CR52_1)))?(RAM_START + 0x10000):noncache_flash_contents_end
                0x6000004c                        LOADER_TEXT_IMAGE = (0x1 == _RZT_ORDINAL)?_mloader_text:_loader_text_start
                0x60001450                        LOADER_DATA_IMAGE = (0x1 == _RZT_ORDINAL)?_mloader_data:_loader_data_start
                0x60001d68                        INTVEC_IMAGE = (0x1 == _RZT_ORDINAL)?_mfvector:_fvector_start
                0x60001de8                        TEXT_IMAGE = (0x1 == _RZT_ORDINAL)?_mtext:_text_start
                0x6000a370                        DATA_IMAGE = (0x1 == _RZT_ORDINAL)?_mdata:_data_start
                0x60020000                        SECONDARY_IMAGE = (0x1 == _RZT_ORDINAL)?ALIGN (noncache_flash_contents_end, 0x20000):_secondary_start
                0x00068000                        DATA_NONCACHE_OFFSET = DEFINED (SYSTEM_RAM_START)?0x68000:0x0
                0x00064000                        DMAC_LINK_MODE_OFFSET = DEFINED (SYSTEM_RAM_START)?0x64000:0x0
                0x00060000                        SHARED_NONCACHE_BUFFER_OFFSET = DEFINED (SYSTEM_RAM_START)?0x60000:0x0
                0x00040000                        NONCACHE_BUFFER_OFFSET = DEFINED (SYSTEM_RAM_START)?0x40000:0x0
                0x10200000                        SYSTEM_RAM_END_ADDRESS = (SYSTEM_RAM_ALIGN_START + SYSTEM_RAM_ALIGN_LENGTH)
                0x30200000                        SYSTEM_RAM_MIRROR_END_ADDRESS = ((SYSTEM_RAM_ALIGN_START + SYSTEM_RAM_ALIGN_LENGTH) + SYSTEM_RAM_MIRROR_OFFSET)
                0x6000bdf4                        DATA_NONCACHE_INIT_START = (0x1 == _RZT_ORDINAL)?_mdata_noncache:((0x0 == HAS_SYSTEM_RAM_MIRROR) && (DEFINED (CR52_0) || DEFINED (CR52_1)))?__ThreadStackLimit:_mdata_noncache
                0x6000bdf4                        DMAC_LINK_MODE_INIT_START = (0x1 == _RZT_ORDINAL)?_mdmac_link_mode:((0x0 == HAS_SYSTEM_RAM_MIRROR) && (DEFINED (CR52_0) || DEFINED (CR52_1)))?_data_noncache_end:_mdmac_link_mode
                0x6000bdf4                        NONCACHE_BUFFER_INIT_START = (0x1 == _RZT_ORDINAL)?_mncbuffer:((0x0 == HAS_SYSTEM_RAM_MIRROR) && (DEFINED (CR52_0) || DEFINED (CR52_1)))?_dmac_link_mode_end:_mncbuffer
                0x6000bdf4                        SHARED_NONCACHE_BUFFER_INIT_START = (0x1 == _RZT_ORDINAL)?_msncbuffer:((0x0 == HAS_SYSTEM_RAM_MIRROR) && (DEFINED (CR52_0) || DEFINED (CR52_1)))?_ncbuffer_end:_msncbuffer
                0x30198000                        DATA_NONCACHE_START = (0x1 == _RZT_ORDINAL)?(SYSTEM_RAM_MIRROR_END_ADDRESS - DATA_NONCACHE_OFFSET):((0x0 == HAS_SYSTEM_RAM_MIRROR) && (DEFINED (CR52_0) || DEFINED (CR52_1)))?__ThreadStackLimit:(_mdata_noncache + SYSTEM_RAM_MIRROR_OFFSET)
                0x3019c000                        DMAC_LINK_MODE_START = (0x1 == _RZT_ORDINAL)?(SYSTEM_RAM_MIRROR_END_ADDRESS - DMAC_LINK_MODE_OFFSET):((0x0 == HAS_SYSTEM_RAM_MIRROR) && (DEFINED (CR52_0) || DEFINED (CR52_1)))?_data_noncache_end:(_mdmac_link_mode + SYSTEM_RAM_MIRROR_OFFSET)
                0x301c0000                        NONCACHE_BUFFER_START = (0x1 == _RZT_ORDINAL)?(SYSTEM_RAM_MIRROR_END_ADDRESS - NONCACHE_BUFFER_OFFSET):((0x0 == HAS_SYSTEM_RAM_MIRROR) && (DEFINED (CR52_0) || DEFINED (CR52_1)))?_dmac_link_mode_end:(_mncbuffer + SYSTEM_RAM_MIRROR_OFFSET)
                0x301a0000                        SHARED_NONCACHE_BUFFER_START = (SYSTEM_RAM_MIRROR_END_ADDRESS - SHARED_NONCACHE_BUFFER_OFFSET)
                0x00000000                        data_noncache_size = (_data_noncache_end - _data_noncache_start)
                0x00000000                        dmac_link_mode_size = (_dmac_link_mode_end - _dmac_link_mode_start)
                0x00000000                        sncbuffer_size = (_sncbuffer_end - _sncbuffer_start)
                0x00000000                        ncbuffer_size = (_ncbuffer_end - _ncbuffer_start)

.loader_param   0x60000000       0x4c
 *(.loader_param)
 .loader_param  0x60000000       0x4c ./rzt/fsp/src/bsp/mcu/rzt2m/bsp_loader_param.o
                0x60000000                g_bsp_loader_param

.flash_contents
                0x6000004c     0xbda8
                0x6000004c                        _mloader_text = .
                0x6000144c                        . = (0x1 == _RZT_ORDINAL)?(. + (_loader_text_end - _loader_text_start)):.
 *fill*         0x6000004c     0x1400 
                0x60001450                        . = ALIGN (0x8)
 *fill*         0x6000144c        0x4 
                0x60001450                        _mloader_data = .
                0x60001d68                        . = (0x1 == _RZT_ORDINAL)?(. + (_loader_data_end - _loader_data_start)):.
 *fill*         0x60001450      0x918 
                0x60001d68                        . = ALIGN (0x8)
                0x60001d68                        _mfvector = .
                0x60001de8                        . = (0x1 == _RZT_ORDINAL)?(. + (_fvector_end - _fvector_start)):.
 *fill*         0x60001d68       0x80 
                0x60001de8                        . = ALIGN (0x8)
                0x60001de8                        _mtext = .
                0x6000a36c                        . = (0x1 == _RZT_ORDINAL)?(. + (_text_end - _text_start)):.
 *fill*         0x60001de8     0x8584 
                0x6000a370                        . = ALIGN (0x8)
 *fill*         0x6000a36c        0x4 
                0x6000a370                        _mdata = .
                0x6000bdf4                        . = (0x1 == _RZT_ORDINAL)?(. + (_data_end - _data_start)):.
 *fill*         0x6000a370     0x1a84 
                0x6000bdf4                        flash_contents_end = .

.noncache_flash_contents
                0x6000bdf4        0x0
                0x6000bdf4                        . = (0x0 != data_noncache_size)?ALIGN (0x8):.
                0x6000bdf4                        _mdata_noncache = .
                0x6000bdf4                        . = (. + data_noncache_size)
                0x6000bdf4                        . = (0x0 != dmac_link_mode_size)?ALIGN (0x8):.
                0x6000bdf4                        _mdmac_link_mode = .
                0x6000bdf4                        . = (. + dmac_link_mode_size)
                0x6000bdf4                        . = (0x0 != sncbuffer_size)?ALIGN (0x20):.
                0x6000bdf4                        _msncbuffer = .
                0x6000bdf4                        . = (. + sncbuffer_size)
                0x6000bdf4                        . = (0x0 != ncbuffer_size)?ALIGN (0x20):.
                0x6000bdf4                        _mncbuffer = .
                0x6000bdf4                        . = (. + ncbuffer_size)
                0x6000bdf4                        noncache_flash_contents_end = .

.loader_text    0x00102000     0x1400 load address 0x6000004c
                0x00102000                        _loader_text_start = .
 *(.loader_text)
 .loader_text   0x00102000       0x5c ./rzt/fsp/src/bsp/cmsis/Device/RENESAS/Source/cr/startup_core.o
                0x00102000                system_init
 */fsp/src/bsp/cmsis/Device/RENESAS/Source/*.o(.text*)
 .text.Default_Handler
                0x0010205c        0x4 ./rzt/fsp/src/bsp/cmsis/Device/RENESAS/Source/cr/startup_core.o
                0x0010205c                Abort_Handler
                0x0010205c                Default_Handler
                0x0010205c                Prefetch_Handler
                0x0010205c                Reserved_Handler
                0x0010205c                SVC_Handler
                0x0010205c                FIQ_Handler
                0x0010205c                Undefined_Handler
 .text.stack_init
                0x00102060       0x64 ./rzt/fsp/src/bsp/cmsis/Device/RENESAS/Source/cr/startup_core.o
                0x00102060                stack_init
 .text.fpu_slavetcm_init
                0x001020c4       0x14 ./rzt/fsp/src/bsp/cmsis/Device/RENESAS/Source/cr/startup_core.o
                0x001020c4                fpu_slavetcm_init
 .text.IRQ_Handler
                0x001020d8       0x78 ./rzt/fsp/src/bsp/cmsis/Device/RENESAS/Source/cr/startup_core.o
                0x001020d8                IRQ_Handler
 .text.bsp_fpu_advancedsimd_init
                0x00102150       0x24 ./rzt/fsp/src/bsp/cmsis/Device/RENESAS/Source/cr/system_core.o
                0x00102150                bsp_fpu_advancedsimd_init
 .text.bsp_slavetcm_enable
                0x00102174       0x18 ./rzt/fsp/src/bsp/cmsis/Device/RENESAS/Source/cr/system_core.o
                0x00102174                bsp_slavetcm_enable
 .text.bsp_memory_protect_setting
                0x0010218c       0x78 ./rzt/fsp/src/bsp/cmsis/Device/RENESAS/Source/cr/system_core.o
                0x0010218c                bsp_memory_protect_setting
 .text.bsp_irq_cfg_common
                0x00102204       0x20 ./rzt/fsp/src/bsp/cmsis/Device/RENESAS/Source/cr/system_core.o
                0x00102204                bsp_irq_cfg_common
 .text.SystemInit
                0x00102224       0x54 ./rzt/fsp/src/bsp/cmsis/Device/RENESAS/Source/startup.o
                0x00102224                SystemInit
 .text.bsp_master_mpu_init
                0x00102278      0x10c ./rzt/fsp/src/bsp/cmsis/Device/RENESAS/Source/system.o
                0x00102278                bsp_master_mpu_init
 .text.bsp_global_system_counter_init
                0x00102384       0x28 ./rzt/fsp/src/bsp/cmsis/Device/RENESAS/Source/system.o
                0x00102384                bsp_global_system_counter_init
 .text.bsp_copy_multibyte
                0x001023ac       0x60 ./rzt/fsp/src/bsp/cmsis/Device/RENESAS/Source/system.o
                0x001023ac                bsp_copy_multibyte
 .text.bsp_loader_data_init
                0x0010240c       0x24 ./rzt/fsp/src/bsp/cmsis/Device/RENESAS/Source/system.o
                0x0010240c                bsp_loader_data_init
 .text.bsp_bss_init_multibyte
                0x00102430       0x68 ./rzt/fsp/src/bsp/cmsis/Device/RENESAS/Source/system.o
                0x00102430                bsp_bss_init_multibyte
 .text.bsp_loader_bss_init
                0x00102498       0x1c ./rzt/fsp/src/bsp/cmsis/Device/RENESAS/Source/system.o
                0x00102498                bsp_loader_bss_init
 .text.bsp_application_bss_init
                0x001024b4       0x1c ./rzt/fsp/src/bsp/cmsis/Device/RENESAS/Source/system.o
                0x001024b4                bsp_application_bss_init
 .text.bsp_cpu_reset_release
                0x001024d0       0x38 ./rzt/fsp/src/bsp/cmsis/Device/RENESAS/Source/system.o
                0x001024d0                bsp_cpu_reset_release
 .text.bsp_copy_to_ram
                0x00102508      0x110 ./rzt/fsp/src/bsp/cmsis/Device/RENESAS/Source/system.o
                0x00102508                bsp_copy_to_ram
 .text.bsp_tfu_init
                0x00102618       0x44 ./rzt/fsp/src/bsp/cmsis/Device/RENESAS/Source/system.o
                0x00102618                bsp_tfu_init
 .text.bsp_static_constructor_init
                0x0010265c       0x54 ./rzt/fsp/src/bsp/cmsis/Device/RENESAS/Source/system.o
                0x0010265c                bsp_static_constructor_init
 */fsp/src/bsp/mcu/all/*/bsp_irq_core.o(.text*)
 .text.bsp_irq_core_cfg
                0x001026b0       0xac ./rzt/fsp/src/bsp/mcu/all/cr/bsp_irq_core.o
                0x001026b0                bsp_irq_core_cfg
 .text.bsp_common_interrupt_handler
                0x0010275c       0x58 ./rzt/fsp/src/bsp/mcu/all/cr/bsp_irq_core.o
                0x0010275c                bsp_common_interrupt_handler
 */fsp/src/bsp/mcu/all/bsp_clocks.o(.text*)
 .text.SystemCoreClockUpdate
                0x001027b4       0x34 ./rzt/fsp/src/bsp/mcu/all/bsp_clocks.o
                0x001027b4                SystemCoreClockUpdate
 .text.bsp_clock_init
                0x001027e8      0x278 ./rzt/fsp/src/bsp/mcu/all/bsp_clocks.o
                0x001027e8                bsp_clock_init
 */fsp/src/bsp/mcu/all/bsp_irq.o(.text*)
 .text.bsp_irq_cfg
                0x00102a60        0x4 ./rzt/fsp/src/bsp/mcu/all/bsp_irq.o
                0x00102a60                bsp_irq_cfg
 */fsp/src/bsp/mcu/all/bsp_semaphore.o(.text*)
 .text.bsp_semaphore_init
                0x00102a64       0x30 ./rzt/fsp/src/bsp/mcu/all/bsp_semaphore.o
                0x00102a64                bsp_semaphore_init
 */fsp/src/bsp/mcu/all/bsp_register_protection.o(.text*)
 .text.R_BSP_RegisterProtectEnable
                0x00102a94       0x60 ./rzt/fsp/src/bsp/mcu/all/bsp_register_protection.o
                0x00102a94                R_BSP_RegisterProtectEnable
 .text.R_BSP_RegisterProtectDisable
                0x00102af4       0x68 ./rzt/fsp/src/bsp/mcu/all/bsp_register_protection.o
                0x00102af4                R_BSP_RegisterProtectDisable
 */fsp/src/bsp/mcu/all/bsp_cache.o(.text*)
 .text.R_BSP_CacheEnableInst
                0x00102b5c       0x18 ./rzt/fsp/src/bsp/mcu/all/bsp_cache.o
                0x00102b5c                R_BSP_CacheEnableInst
 .text.R_BSP_CacheEnableData
                0x00102b74       0x18 ./rzt/fsp/src/bsp/mcu/all/bsp_cache.o
                0x00102b74                R_BSP_CacheEnableData
 .text.R_BSP_CacheEnableMemoryProtect
                0x00102b8c       0x18 ./rzt/fsp/src/bsp/mcu/all/bsp_cache.o
                0x00102b8c                R_BSP_CacheEnableMemoryProtect
 .text.R_BSP_CacheInvalidateAll
                0x00102ba4       0xbc ./rzt/fsp/src/bsp/mcu/all/bsp_cache.o
                0x00102ba4                R_BSP_CacheInvalidateAll
 */fsp/src/bsp/mcu/all/bsp_tzc400.o(.text*)
 */fsp/src/bsp/mcu/all/bsp_address_expander.o(.text*)
 */fsp/src/r_ioport/r_ioport.o(.text*)
 .text.R_IOPORT_PinWrite
                0x00102c60       0x54 ./rzt/fsp/src/r_ioport/r_ioport.o
                0x00102c60                R_IOPORT_PinWrite
 .text.r_ioport_pin_set_safety
                0x00102cb4      0x120 ./rzt/fsp/src/r_ioport/r_ioport.o
 .text.r_ioport_pins_config
                0x00102dd4      0x254 ./rzt/fsp/src/r_ioport/r_ioport.o
 .text.R_IOPORT_Open
                0x00103028      0x30c ./rzt/fsp/src/r_ioport/r_ioport.o
                0x00103028                R_IOPORT_Open
 *(.warm_start)
 .warm_start    0x00103334       0x20 ./src/hal_entry.o
                0x00103334                R_BSP_WarmStart
 *fill*         0x00103354        0x4 
 .warm_start.__stub
                0x00103358        0x8 linker stubs
 *(.loader_user_data*)
                0x00103400                        . = ALIGN (0x200)
 *fill*         0x00103360       0xa0 
                0x00103400                        _loader_text_end = .

.loader_data    0x00103400      0x918 load address 0x60001450
                0x00103400                        _loader_data_start = .
                0x00103400                        __loader_data_start = .
 */fsp/src/bsp/cmsis/Device/RENESAS/Source/*.o(.data*)
 */fsp/src/bsp/cmsis/Device/RENESAS/Source/*/system_core.o(.rodata*)
 .rodata.g_bsp_el1_mpu
                0x00103400       0xc0 ./rzt/fsp/src/bsp/cmsis/Device/RENESAS/Source/cr/system_core.o
 */fsp/src/bsp/mcu/all/*/bsp_irq_core.o(.data*)
 */fsp/src/bsp/mcu/all/bsp_clocks.o(.data*)
 */fsp/src/bsp/mcu/all/bsp_irq.o(.data*)
 */fsp/src/bsp/mcu/all/bsp_semaphore.o(.data*)
 */fsp/src/bsp/mcu/all/bsp_register_protection.o(.data*)
 */fsp/src/bsp/mcu/all/bsp_register_protection.o(.rodata*)
 .rodata.g_prcr_masks
                0x001034c0        0x8 ./rzt/fsp/src/bsp/mcu/all/bsp_register_protection.o
 */fsp/src/bsp/mcu/all/bsp_cache.o(.data*)
 */fsp/src/bsp/mcu/all/bsp_tzc400.o(.data*)
 */fsp/src/bsp/mcu/all/bsp_tzc400.o(.rodata*)
 */fsp/src/bsp/mcu/all/bsp_address_expander.o(.data*)
 */fsp/src/r_ioport/r_ioport.o(.data*)
                0x001034c8                        . = ALIGN (0x8)
                0x001034c8                        __loader_data_end = .
                0x001034c8                        __loader_bss_start = .
 */fsp/src/bsp/cmsis/Device/RENESAS/Source/*.o(.bss*)
 .bss.g_sgi_ppi_vector_table
                0x001034c8       0x80 ./rzt/fsp/src/bsp/cmsis/Device/RENESAS/Source/cr/system_core.o
                0x001034c8                g_sgi_ppi_vector_table
 .bss.SystemCoreClock
                0x00103548        0x4 ./rzt/fsp/src/bsp/cmsis/Device/RENESAS/Source/system.o
                0x00103548                SystemCoreClock
 */fsp/src/bsp/mcu/all/*/bsp_irq_core.o(.bss*)
 .bss.g_current_interrupt_pointer
                0x0010354c        0x1 ./rzt/fsp/src/bsp/mcu/all/cr/bsp_irq_core.o
                0x0010354c                g_current_interrupt_pointer
 *fill*         0x0010354d        0x3 
 .bss.g_current_interrupt_num
                0x00103550       0x40 ./rzt/fsp/src/bsp/mcu/all/cr/bsp_irq_core.o
                0x00103550                g_current_interrupt_num
 .bss.gp_renesas_isr_context
                0x00103590      0x780 ./rzt/fsp/src/bsp/mcu/all/cr/bsp_irq_core.o
                0x00103590                gp_renesas_isr_context
 */fsp/src/bsp/mcu/all/bsp_clocks.o(.bss*)
 */fsp/src/bsp/mcu/all/bsp_irq.o(.bss*)
 */fsp/src/bsp/mcu/all/bsp_semaphore.o(.bss*)
 */fsp/src/bsp/mcu/all/bsp_register_protection.o(.bss*)
 .bss.g_protect_counters
                0x00103d10        0x8 ./rzt/fsp/src/bsp/mcu/all/bsp_register_protection.o
                0x00103d10                g_protect_counters
 */fsp/src/bsp/mcu/all/bsp_cache.o(.bss*)
 */fsp/src/bsp/mcu/all/bsp_tzc400.o(.bss*)
 */fsp/src/bsp/mcu/all/bsp_address_expander.o(.bss*)
 */fsp/src/r_ioport/r_ioport.o(.bss*)
 *(.ttbr)
 */fsp/src/bsp/cmsis/Device/RENESAS/Source/*.o(COMMON)
 */fsp/src/bsp/mcu/all/*/bsp_irq_core.o(COMMON)
 */fsp/src/bsp/mcu/all/bsp_clocks.o(COMMON)
 */fsp/src/bsp/mcu/all/bsp_irq.o(COMMON)
 */fsp/src/bsp/mcu/all/bsp_semaphore.o(COMMON)
 */fsp/src/bsp/mcu/all/bsp_register_protection.o(.COMMON)
 */fsp/src/bsp/mcu/all/bsp_cache.o(COMMON)
 */fsp/src/bsp/mcu/all/bsp_tzc400.o(COMMON)
 */fsp/src/bsp/mcu/all/bsp_address_expander.o(COMMON)
 */fsp/src/r_ioport/r_ioport.o(.COMMON)
                0x00103d18                        . = ALIGN (0x8)
                0x00103d18                        __loader_bss_end = .
                0x00103d18                        _loader_data_end = .

.intvec         0x00000000       0x80 load address 0x60001d68
                0x00000000                        _fvector_start = .
 *(.intvec)
 .intvec        0x00000000       0x40 ./rzt/fsp/src/bsp/cmsis/Device/RENESAS/Source/cr/startup_core.o
                0x00000000                __Vectors
                0x00000080                        . = ALIGN (0x80)
 *fill*         0x00000040       0x40 
 *(.intvec_0x080)
                0x00000080                        . = ALIGN (0x80)
 *(.intvec_0x100)
                0x00000080                        . = ALIGN (0x80)
 *(.intvec_0x180)
                0x00000080                        . = ALIGN (0x80)
 *(.intvec_0x200)
                0x00000080                        . = ALIGN (0x80)
 *(.intvec_0x280)
                0x00000080                        . = ALIGN (0x80)
 *(.intvec_0x300)
                0x00000080                        . = ALIGN (0x80)
 *(.intvec_0x380)
                0x00000080                        . = ALIGN (0x80)
 *(.intvec_0x400)
                0x00000080                        . = ALIGN (0x80)
 *(.intvec_0x480)
                0x00000080                        . = ALIGN (0x80)
 *(.intvec_0x500)
                0x00000080                        . = ALIGN (0x80)
 *(.intvec_0x580)
                0x00000080                        . = ALIGN (0x80)
 *(.intvec_0x600)
                0x00000080                        . = ALIGN (0x80)
 *(.intvec_0x680)
                0x00000080                        . = ALIGN (0x80)
 *(.intvec_0x700)
                0x00000080                        . = ALIGN (0x80)
 *(.intvec_0x780)
                0x00000080                        _fvector_end = .

.image_info     0x00000800        0x0
                0x00000800                        _image_info_start = .
 *(.image_info)
                0x00000800                        _image_info_end = .

.text           0x00000100     0x857c load address 0x60001de8
                0x00000100                        _text_start = .
 *(.text*)
 .text._write   0x00000100       0x34 ./src/hal_entry.o
                0x00000100                _write
 *fill*         0x00000134        0x4 
 .text.hal_entry
                0x00000138      0x200 ./src/hal_entry.o
                0x00000138                hal_entry
 .text.g_timer0CB
                0x00000338       0x14 ./src/hal_entry.o
                0x00000338                g_timer0CB
 .text.shared_memory_callback
                0x0000034c       0x14 ./src/hal_entry.o
                0x0000034c                shared_memory_callback
 .text._getpid  0x00000360        0x4 ./src/syscall.o
                0x00000360                _getpid
 .text._kill    0x00000364       0x14 ./src/syscall.o
                0x00000364                _kill
 .text._exit    0x00000378        0xc ./src/syscall.o
                0x00000378                _exit
 .text._read    0x00000384       0x1c ./src/syscall.o
                0x00000384                _read
 .text._close   0x000003a0        0x8 ./src/syscall.o
                0x000003a0                _close
 .text._fstat   0x000003a8        0xc ./src/syscall.o
                0x000003a8                _fstat
 .text._isatty  0x000003b4        0x4 ./src/syscall.o
                0x000003b4                _isatty
 .text._lseek   0x000003b8        0x4 ./src/syscall.o
                0x000003b8                _lseek
 .text._times   0x000003bc        0x8 ./src/syscall.o
                0x000003bc                _times
 .text.startup.main
                0x000003c4        0xc ./rzt_gen/main.o
                0x000003c4                main
 .text.R_SHARED_MEMORY_Open
                0x000003d0       0xe8 ./rzt/fsp/src/r_shared_memory/r_shared_memory.o
                0x000003d0                R_SHARED_MEMORY_Open
 .text.R_SHARED_MEMORY_StatusGet
                0x000004b8        0xc ./rzt/fsp/src/r_shared_memory/r_shared_memory.o
                0x000004b8                R_SHARED_MEMORY_StatusGet
 .text.R_SHARED_MEMORY_Read
                0x000004c4       0x78 ./rzt/fsp/src/r_shared_memory/r_shared_memory.o
                0x000004c4                R_SHARED_MEMORY_Read
 .text.r_shared_memory_callback
                0x0000053c       0x40 ./rzt/fsp/src/r_shared_memory/r_shared_memory.o
                0x0000053c                r_shared_memory_callback
 .text.r_sci_irq_cfg
                0x0000057c       0xc4 ./rzt/fsp/src/r_sci_uart/r_sci_uart.o
 .text.R_SCI_UART_Open
                0x00000640      0x390 ./rzt/fsp/src/r_sci_uart/r_sci_uart.o
                0x00000640                R_SCI_UART_Open
 .text.sci_uart_txi_isr
                0x000009d0       0xbc ./rzt/fsp/src/r_sci_uart/r_sci_uart.o
                0x000009d0                sci_uart_txi_isr
 .text.sci_uart_rxi_isr
                0x00000a8c       0xbc ./rzt/fsp/src/r_sci_uart/r_sci_uart.o
                0x00000a8c                sci_uart_rxi_isr
 .text.sci_uart_tei_isr
                0x00000b48       0x74 ./rzt/fsp/src/r_sci_uart/r_sci_uart.o
                0x00000b48                sci_uart_tei_isr
 .text.sci_uart_eri_isr
                0x00000bbc       0xa8 ./rzt/fsp/src/r_sci_uart/r_sci_uart.o
                0x00000bbc                sci_uart_eri_isr
 .text.R_ICU_INTER_CPU_IRQ_Open
                0x00000c64       0xf4 ./rzt/fsp/src/r_icu_inter_cpu_irq/r_icu_inter_cpu_irq.o
                0x00000c64                R_ICU_INTER_CPU_IRQ_Open
 .text.R_ICU_INTER_CPU_IRQ_Generate
                0x00000d58       0x34 ./rzt/fsp/src/r_icu_inter_cpu_irq/r_icu_inter_cpu_irq.o
                0x00000d58                R_ICU_INTER_CPU_IRQ_Generate
 .text.R_ICU_INTER_CPU_IRQ_CallbackSet
                0x00000d8c       0x10 ./rzt/fsp/src/r_icu_inter_cpu_irq/r_icu_inter_cpu_irq.o
                0x00000d8c                R_ICU_INTER_CPU_IRQ_CallbackSet
 .text.R_ICU_INTER_CPU_IRQ_Close
                0x00000d9c       0x58 ./rzt/fsp/src/r_icu_inter_cpu_irq/r_icu_inter_cpu_irq.o
                0x00000d9c                R_ICU_INTER_CPU_IRQ_Close
 .text.r_icu_inter_cpu_irq_isr
                0x00000df4       0x54 ./rzt/fsp/src/r_icu_inter_cpu_irq/r_icu_inter_cpu_irq.o
                0x00000df4                r_icu_inter_cpu_irq_isr
 .text.R_GPT_Stop
                0x00000e48        0xc ./rzt/fsp/src/r_gpt/r_gpt.o
                0x00000e48                R_GPT_Stop
 .text.R_GPT_Start
                0x00000e54        0xc ./rzt/fsp/src/r_gpt/r_gpt.o
                0x00000e54                R_GPT_Start
 .text.R_GPT_Reset
                0x00000e60        0xc ./rzt/fsp/src/r_gpt/r_gpt.o
                0x00000e60                R_GPT_Reset
 .text.R_GPT_Enable
                0x00000e6c       0x30 ./rzt/fsp/src/r_gpt/r_gpt.o
                0x00000e6c                R_GPT_Enable
 .text.R_GPT_Disable
                0x00000e9c       0x18 ./rzt/fsp/src/r_gpt/r_gpt.o
                0x00000e9c                R_GPT_Disable
 .text.R_GPT_PeriodSet
                0x00000eb4       0x1c ./rzt/fsp/src/r_gpt/r_gpt.o
                0x00000eb4                R_GPT_PeriodSet
 .text.R_GPT_DutyCycleSet
                0x00000ed0        0x4 ./rzt/fsp/src/r_gpt/r_gpt.o
                0x00000ed0                R_GPT_DutyCycleSet
 .text.R_GPT_InfoGet
                0x00000ed4       0x78 ./rzt/fsp/src/r_gpt/r_gpt.o
                0x00000ed4                R_GPT_InfoGet
 .text.R_GPT_StatusGet
                0x00000f4c       0x14 ./rzt/fsp/src/r_gpt/r_gpt.o
                0x00000f4c                R_GPT_StatusGet
 .text.R_GPT_CallbackSet
                0x00000f60       0x10 ./rzt/fsp/src/r_gpt/r_gpt.o
                0x00000f60                R_GPT_CallbackSet
 .text.r_gpt_enable_irq
                0x00000f70       0x74 ./rzt/fsp/src/r_gpt/r_gpt.o
 .text.R_GPT_Open
                0x00000fe4      0x1f8 ./rzt/fsp/src/r_gpt/r_gpt.o
                0x00000fe4                R_GPT_Open
 .text.R_GPT_Close
                0x000011dc      0x12c ./rzt/fsp/src/r_gpt/r_gpt.o
                0x000011dc                R_GPT_Close
 .text.gpt_counter_overflow_isr
                0x00001308       0x9c ./rzt/fsp/src/r_gpt/r_gpt.o
                0x00001308                gpt_counter_overflow_isr
 .text.r_bsp_software_delay_loop
                0x000013a4        0xc ./rzt/fsp/src/bsp/mcu/all/cr/bsp_delay_core.o
                0x000013a4                r_bsp_software_delay_loop
 .text.R_BSP_SoftwareDelay
                0x000013b0       0x80 ./rzt/fsp/src/bsp/mcu/all/bsp_delay.o
                0x000013b0                R_BSP_SoftwareDelay
 .text.R_BSP_CPUResetRelease
                0x00001430       0x40 ./rzt/fsp/src/bsp/mcu/all/bsp_reset.o
                0x00001430                R_BSP_CPUResetRelease
 .text._sbrk    0x00001470       0x48 ./rzt/fsp/src/bsp/mcu/all/bsp_sbrk.o
                0x00001470                _sbrk
 .text.cmp_complex
                0x000014b8      0x11c ./coremark/core_list_join.o
                0x000014b8                cmp_complex
 .text.core_bench_list
                0x000015d4      0x2f8 ./coremark/core_list_join.o
                0x000015d4                core_bench_list
 .text.core_list_init
                0x000018cc      0x1d8 ./coremark/core_list_join.o
                0x000018cc                core_list_init
 .text.coremain
                0x00001aa4      0x6f8 ./coremark/core_main.o
                0x00001aa4                coremain
 .text.matrix_test
                0x0000219c      0x948 ./coremark/core_matrix.o
                0x0000219c                matrix_test
 .text.core_bench_matrix
                0x00002ae4       0x20 ./coremark/core_matrix.o
                0x00002ae4                core_bench_matrix
 .text.core_init_matrix
                0x00002b04       0xf0 ./coremark/core_matrix.o
                0x00002b04                core_init_matrix
 .text.start_time
                0x00002bf4       0x14 ./coremark/core_portme.o
                0x00002bf4                start_time
 .text.stop_time
                0x00002c08        0x4 ./coremark/core_portme.o
                0x00002c08                stop_time
 .text.get_time
                0x00002c0c        0xc ./coremark/core_portme.o
                0x00002c0c                get_time
 .text.time_in_secs
                0x00002c18       0x20 ./coremark/core_portme.o
                0x00002c18                time_in_secs
 .text.portable_init
                0x00002c38        0x8 ./coremark/core_portme.o
                0x00002c38                portable_init
 .text.portable_fini
                0x00002c40        0x8 ./coremark/core_portme.o
                0x00002c40                portable_fini
 .text.core_init_state
                0x00002c48      0x154 ./coremark/core_state.o
                0x00002c48                core_init_state
 .text.core_state_transition
                0x00002d9c      0x19c ./coremark/core_state.o
                0x00002d9c                core_state_transition
 .text.core_bench_state
                0x00002f38      0x128 ./coremark/core_state.o
                0x00002f38                core_bench_state
 .text.get_seed_32
                0x00003060       0x50 ./coremark/core_util.o
                0x00003060                get_seed_32
 .text.crcu16   0x000030b0      0x11c ./coremark/core_util.o
                0x000030b0                crcu16
 .text.crcu32   0x000031cc      0x258 ./coremark/core_util.o
                0x000031cc                crcu32
 .text.crc16    0x00003424      0x130 ./coremark/core_util.o
                0x00003424                crc16
 .text.check_data_types
                0x00003554        0x4 ./coremark/core_util.o
                0x00003554                check_data_types
 .text          0x00003558       0x30 C:/Program Files (x86)/Arm GNU Toolchain arm-none-eabi/13.2 Rel1/bin/../lib/gcc/arm-none-eabi/13.2.1/thumb/v7+fp/hard\libgcc.a(_aeabi_uldivmod.o)
                0x00003558                __aeabi_uldivmod
 .text.__udivmoddi4
                0x00003588      0x108 C:/Program Files (x86)/Arm GNU Toolchain arm-none-eabi/13.2 Rel1/bin/../lib/gcc/arm-none-eabi/13.2.1/thumb/v7+fp/hard\libgcc.a(_udivmoddi4.o)
                0x00003588                __udivmoddi4
 .text          0x00003690        0x4 C:/Program Files (x86)/Arm GNU Toolchain arm-none-eabi/13.2 Rel1/bin/../lib/gcc/arm-none-eabi/13.2.1/thumb/v7+fp/hard\libgcc.a(_dvmd_tls.o)
                0x00003690                __aeabi_idiv0
                0x00003690                __aeabi_ldiv0
 .text.__assert_func
                0x00003694       0x3c C:/Program Files (x86)/Arm GNU Toolchain arm-none-eabi/13.2 Rel1/bin/../lib/gcc/arm-none-eabi/13.2.1/thumb/v7+fp/hard\libg_nano.a(libc_a-assert.o)
                0x00003694                __assert_func
 .text.malloc   0x000036d0       0x10 C:/Program Files (x86)/Arm GNU Toolchain arm-none-eabi/13.2 Rel1/bin/../lib/gcc/arm-none-eabi/13.2.1/thumb/v7+fp/hard\libg_nano.a(libc_a-malloc.o)
                0x000036d0                malloc
 .text.sbrk_aligned
                0x000036e0       0x44 C:/Program Files (x86)/Arm GNU Toolchain arm-none-eabi/13.2 Rel1/bin/../lib/gcc/arm-none-eabi/13.2.1/thumb/v7+fp/hard\libg_nano.a(libc_a-mallocr.o)
 .text._malloc_r
                0x00003724       0xfc C:/Program Files (x86)/Arm GNU Toolchain arm-none-eabi/13.2 Rel1/bin/../lib/gcc/arm-none-eabi/13.2.1/thumb/v7+fp/hard\libg_nano.a(libc_a-mallocr.o)
                0x00003724                _malloc_r
 .text.__malloc_lock
                0x00003820        0xc C:/Program Files (x86)/Arm GNU Toolchain arm-none-eabi/13.2 Rel1/bin/../lib/gcc/arm-none-eabi/13.2.1/thumb/v7+fp/hard\libg_nano.a(libc_a-mlock.o)
                0x00003820                __malloc_lock
 .text.__malloc_unlock
                0x0000382c        0xc C:/Program Files (x86)/Arm GNU Toolchain arm-none-eabi/13.2 Rel1/bin/../lib/gcc/arm-none-eabi/13.2.1/thumb/v7+fp/hard\libg_nano.a(libc_a-mlock.o)
                0x0000382c                __malloc_unlock
 .text.__cvt    0x00003838       0xa8 C:/Program Files (x86)/Arm GNU Toolchain arm-none-eabi/13.2 Rel1/bin/../lib/gcc/arm-none-eabi/13.2.1/thumb/v7+fp/hard\libg_nano.a(libc_a-nano-vfprintf_float.o)
                0x00003838                __cvt
 .text.__exponent
                0x000038e0       0x84 C:/Program Files (x86)/Arm GNU Toolchain arm-none-eabi/13.2 Rel1/bin/../lib/gcc/arm-none-eabi/13.2.1/thumb/v7+fp/hard\libg_nano.a(libc_a-nano-vfprintf_float.o)
                0x000038e0                __exponent
 *fill*         0x00003964        0x4 
 .text._printf_float
                0x00003968      0x434 C:/Program Files (x86)/Arm GNU Toolchain arm-none-eabi/13.2 Rel1/bin/../lib/gcc/arm-none-eabi/13.2.1/thumb/v7+fp/hard\libg_nano.a(libc_a-nano-vfprintf_float.o)
                0x00003968                _printf_float
 .text._printf_common
                0x00003d9c       0xe4 C:/Program Files (x86)/Arm GNU Toolchain arm-none-eabi/13.2 Rel1/bin/../lib/gcc/arm-none-eabi/13.2.1/thumb/v7+fp/hard\libg_nano.a(libc_a-nano-vfprintf_i.o)
                0x00003d9c                _printf_common
 .text._printf_i
                0x00003e80      0x244 C:/Program Files (x86)/Arm GNU Toolchain arm-none-eabi/13.2 Rel1/bin/../lib/gcc/arm-none-eabi/13.2.1/thumb/v7+fp/hard\libg_nano.a(libc_a-nano-vfprintf_i.o)
                0x00003e80                _printf_i
 .text._scanf_float
                0x000040c4      0x414 C:/Program Files (x86)/Arm GNU Toolchain arm-none-eabi/13.2 Rel1/bin/../lib/gcc/arm-none-eabi/13.2.1/thumb/v7+fp/hard\libg_nano.a(libc_a-nano-vfscanf_float.o)
                0x000040c4                _scanf_float
 .text.fprintf  0x000044d8       0x24 C:/Program Files (x86)/Arm GNU Toolchain arm-none-eabi/13.2 Rel1/bin/../lib/gcc/arm-none-eabi/13.2.1/thumb/v7+fp/hard\libg_nano.a(libc_a-fprintf.o)
                0x000044d8                fiprintf
                0x000044d8                fprintf
 .text.printf   0x000044fc       0x24 C:/Program Files (x86)/Arm GNU Toolchain arm-none-eabi/13.2 Rel1/bin/../lib/gcc/arm-none-eabi/13.2.1/thumb/v7+fp/hard\libg_nano.a(libc_a-printf.o)
                0x000044fc                iprintf
                0x000044fc                printf
 .text.putchar  0x00004520       0x10 C:/Program Files (x86)/Arm GNU Toolchain arm-none-eabi/13.2 Rel1/bin/../lib/gcc/arm-none-eabi/13.2.1/thumb/v7+fp/hard\libg_nano.a(libc_a-putchar.o)
                0x00004520                putchar
 .text._puts_r  0x00004530       0xaa C:/Program Files (x86)/Arm GNU Toolchain arm-none-eabi/13.2 Rel1/bin/../lib/gcc/arm-none-eabi/13.2.1/thumb/v7+fp/hard\libg_nano.a(libc_a-puts.o)
                0x00004530                _puts_r
 *fill*         0x000045da        0x2 
 .text.puts     0x000045dc       0x10 C:/Program Files (x86)/Arm GNU Toolchain arm-none-eabi/13.2 Rel1/bin/../lib/gcc/arm-none-eabi/13.2.1/thumb/v7+fp/hard\libg_nano.a(libc_a-puts.o)
                0x000045dc                puts
 .text.sprintf  0x000045ec       0x40 C:/Program Files (x86)/Arm GNU Toolchain arm-none-eabi/13.2 Rel1/bin/../lib/gcc/arm-none-eabi/13.2.1/thumb/v7+fp/hard\libg_nano.a(libc_a-sprintf.o)
                0x000045ec                siprintf
                0x000045ec                sprintf
 .text.__swbuf_r
                0x0000462c       0x7c C:/Program Files (x86)/Arm GNU Toolchain arm-none-eabi/13.2 Rel1/bin/../lib/gcc/arm-none-eabi/13.2.1/thumb/v7+fp/hard\libg_nano.a(libc_a-wbuf.o)
                0x0000462c                __swbuf_r
 .text.__swsetup_r
                0x000046a8       0xac C:/Program Files (x86)/Arm GNU Toolchain arm-none-eabi/13.2 Rel1/bin/../lib/gcc/arm-none-eabi/13.2.1/thumb/v7+fp/hard\libg_nano.a(libc_a-wsetup.o)
                0x000046a8                __swsetup_r
 .text.memset   0x00004754       0x10 C:/Program Files (x86)/Arm GNU Toolchain arm-none-eabi/13.2 Rel1/bin/../lib/gcc/arm-none-eabi/13.2.1/thumb/v7+fp/hard\libg_nano.a(libc_a-memset.o)
                0x00004754                memset
 .text.clock    0x00004764       0x28 C:/Program Files (x86)/Arm GNU Toolchain arm-none-eabi/13.2 Rel1/bin/../lib/gcc/arm-none-eabi/13.2.1/thumb/v7+fp/hard\libg_nano.a(libc_a-clock.o)
                0x00004764                clock
 .text._localeconv_r
                0x0000478c        0x8 C:/Program Files (x86)/Arm GNU Toolchain arm-none-eabi/13.2 Rel1/bin/../lib/gcc/arm-none-eabi/13.2.1/thumb/v7+fp/hard\libg_nano.a(libc_a-localeconv.o)
                0x0000478c                _localeconv_r
 .text._sbrk_r  0x00004794       0x20 C:/Program Files (x86)/Arm GNU Toolchain arm-none-eabi/13.2 Rel1/bin/../lib/gcc/arm-none-eabi/13.2.1/thumb/v7+fp/hard\libg_nano.a(libc_a-sbrkr.o)
                0x00004794                _sbrk_r
 .text._times_r
                0x000047b4        0x6 C:/Program Files (x86)/Arm GNU Toolchain arm-none-eabi/13.2 Rel1/bin/../lib/gcc/arm-none-eabi/13.2.1/thumb/v7+fp/hard\libg_nano.a(libc_a-timesr.o)
                0x000047b4                _times_r
 *fill*         0x000047ba        0x2 
 .text.__errno  0x000047bc        0xc C:/Program Files (x86)/Arm GNU Toolchain arm-none-eabi/13.2 Rel1/bin/../lib/gcc/arm-none-eabi/13.2.1/thumb/v7+fp/hard\libg_nano.a(libc_a-errno.o)
                0x000047bc                __errno
 .text.__retarget_lock_init_recursive
                0x000047c8        0x2 C:/Program Files (x86)/Arm GNU Toolchain arm-none-eabi/13.2 Rel1/bin/../lib/gcc/arm-none-eabi/13.2.1/thumb/v7+fp/hard\libg_nano.a(libc_a-lock.o)
                0x000047c8                __retarget_lock_init_recursive
 .text.__retarget_lock_acquire_recursive
                0x000047ca        0x2 C:/Program Files (x86)/Arm GNU Toolchain arm-none-eabi/13.2 Rel1/bin/../lib/gcc/arm-none-eabi/13.2.1/thumb/v7+fp/hard\libg_nano.a(libc_a-lock.o)
                0x000047ca                __retarget_lock_acquire_recursive
 .text.__retarget_lock_release_recursive
                0x000047cc        0x2 C:/Program Files (x86)/Arm GNU Toolchain arm-none-eabi/13.2 Rel1/bin/../lib/gcc/arm-none-eabi/13.2.1/thumb/v7+fp/hard\libg_nano.a(libc_a-lock.o)
                0x000047cc                __retarget_lock_release_recursive
 .text.memchr   0x000047ce       0x1c C:/Program Files (x86)/Arm GNU Toolchain arm-none-eabi/13.2 Rel1/bin/../lib/gcc/arm-none-eabi/13.2.1/thumb/v7+fp/hard\libg_nano.a(libc_a-memchr-stub.o)
                0x000047ce                memchr
 .text.memcpy   0x000047ea       0x1a C:/Program Files (x86)/Arm GNU Toolchain arm-none-eabi/13.2 Rel1/bin/../lib/gcc/arm-none-eabi/13.2.1/thumb/v7+fp/hard\libg_nano.a(libc_a-memcpy-stub.o)
                0x000047ea                memcpy
 .text          0x00004804       0x10 C:/Program Files (x86)/Arm GNU Toolchain arm-none-eabi/13.2 Rel1/bin/../lib/gcc/arm-none-eabi/13.2.1/thumb/v7+fp/hard\libg_nano.a(libc_a-strlen.o)
                0x00004804                strlen
 .text.nanf     0x00004814        0xc C:/Program Files (x86)/Arm GNU Toolchain arm-none-eabi/13.2 Rel1/bin/../lib/gcc/arm-none-eabi/13.2.1/thumb/v7+fp/hard\libg_nano.a(libm_a-sf_nan.o)
                0x00004814                nanf
 .text.abort    0x00004820        0xe C:/Program Files (x86)/Arm GNU Toolchain arm-none-eabi/13.2 Rel1/bin/../lib/gcc/arm-none-eabi/13.2.1/thumb/v7+fp/hard\libg_nano.a(libc_a-abort.o)
                0x00004820                abort
 .text.quorem   0x0000482e      0x128 C:/Program Files (x86)/Arm GNU Toolchain arm-none-eabi/13.2 Rel1/bin/../lib/gcc/arm-none-eabi/13.2.1/thumb/v7+fp/hard\libg_nano.a(libc_a-dtoa.o)
 *fill*         0x00004956        0x2 
 .text._dtoa_r  0x00004958      0xa94 C:/Program Files (x86)/Arm GNU Toolchain arm-none-eabi/13.2 Rel1/bin/../lib/gcc/arm-none-eabi/13.2.1/thumb/v7+fp/hard\libg_nano.a(libc_a-dtoa.o)
                0x00004958                _dtoa_r
 .text._free_r  0x000053ec       0x94 C:/Program Files (x86)/Arm GNU Toolchain arm-none-eabi/13.2 Rel1/bin/../lib/gcc/arm-none-eabi/13.2.1/thumb/v7+fp/hard\libg_nano.a(libc_a-freer.o)
                0x000053ec                _free_r
 .text._Balloc  0x00005480       0x80 C:/Program Files (x86)/Arm GNU Toolchain arm-none-eabi/13.2 Rel1/bin/../lib/gcc/arm-none-eabi/13.2.1/thumb/v7+fp/hard\libg_nano.a(libc_a-mprec.o)
                0x00005480                _Balloc
 .text._Bfree   0x00005500       0x44 C:/Program Files (x86)/Arm GNU Toolchain arm-none-eabi/13.2 Rel1/bin/../lib/gcc/arm-none-eabi/13.2.1/thumb/v7+fp/hard\libg_nano.a(libc_a-mprec.o)
                0x00005500                _Bfree
 .text.__multadd
                0x00005544       0x90 C:/Program Files (x86)/Arm GNU Toolchain arm-none-eabi/13.2 Rel1/bin/../lib/gcc/arm-none-eabi/13.2.1/thumb/v7+fp/hard\libg_nano.a(libc_a-mprec.o)
                0x00005544                __multadd
 .text.__s2b    0x000055d4       0x9c C:/Program Files (x86)/Arm GNU Toolchain arm-none-eabi/13.2 Rel1/bin/../lib/gcc/arm-none-eabi/13.2.1/thumb/v7+fp/hard\libg_nano.a(libc_a-mprec.o)
                0x000055d4                __s2b
 .text.__hi0bits
                0x00005670       0x3e C:/Program Files (x86)/Arm GNU Toolchain arm-none-eabi/13.2 Rel1/bin/../lib/gcc/arm-none-eabi/13.2.1/thumb/v7+fp/hard\libg_nano.a(libc_a-mprec.o)
                0x00005670                __hi0bits
 .text.__lo0bits
                0x000056ae       0x58 C:/Program Files (x86)/Arm GNU Toolchain arm-none-eabi/13.2 Rel1/bin/../lib/gcc/arm-none-eabi/13.2.1/thumb/v7+fp/hard\libg_nano.a(libc_a-mprec.o)
                0x000056ae                __lo0bits
 *fill*         0x00005706        0x2 
 .text.__i2b    0x00005708       0x2c C:/Program Files (x86)/Arm GNU Toolchain arm-none-eabi/13.2 Rel1/bin/../lib/gcc/arm-none-eabi/13.2.1/thumb/v7+fp/hard\libg_nano.a(libc_a-mprec.o)
                0x00005708                __i2b
 .text.__multiply
                0x00005734      0x148 C:/Program Files (x86)/Arm GNU Toolchain arm-none-eabi/13.2 Rel1/bin/../lib/gcc/arm-none-eabi/13.2.1/thumb/v7+fp/hard\libg_nano.a(libc_a-mprec.o)
                0x00005734                __multiply
 .text.__pow5mult
                0x0000587c       0xb4 C:/Program Files (x86)/Arm GNU Toolchain arm-none-eabi/13.2 Rel1/bin/../lib/gcc/arm-none-eabi/13.2.1/thumb/v7+fp/hard\libg_nano.a(libc_a-mprec.o)
                0x0000587c                __pow5mult
 .text.__lshift
                0x00005930       0xd8 C:/Program Files (x86)/Arm GNU Toolchain arm-none-eabi/13.2 Rel1/bin/../lib/gcc/arm-none-eabi/13.2.1/thumb/v7+fp/hard\libg_nano.a(libc_a-mprec.o)
                0x00005930                __lshift
 .text.__mcmp   0x00005a08       0x36 C:/Program Files (x86)/Arm GNU Toolchain arm-none-eabi/13.2 Rel1/bin/../lib/gcc/arm-none-eabi/13.2.1/thumb/v7+fp/hard\libg_nano.a(libc_a-mprec.o)
                0x00005a08                __mcmp
 *fill*         0x00005a3e        0x2 
 .text.__mdiff  0x00005a40      0x12c C:/Program Files (x86)/Arm GNU Toolchain arm-none-eabi/13.2 Rel1/bin/../lib/gcc/arm-none-eabi/13.2.1/thumb/v7+fp/hard\libg_nano.a(libc_a-mprec.o)
                0x00005a40                __mdiff
 .text.__ulp    0x00005b6c       0x4c C:/Program Files (x86)/Arm GNU Toolchain arm-none-eabi/13.2 Rel1/bin/../lib/gcc/arm-none-eabi/13.2.1/thumb/v7+fp/hard\libg_nano.a(libc_a-mprec.o)
                0x00005b6c                __ulp
 .text.__b2d    0x00005bb8       0x9c C:/Program Files (x86)/Arm GNU Toolchain arm-none-eabi/13.2 Rel1/bin/../lib/gcc/arm-none-eabi/13.2.1/thumb/v7+fp/hard\libg_nano.a(libc_a-mprec.o)
                0x00005bb8                __b2d
 .text.__d2b    0x00005c54       0xb0 C:/Program Files (x86)/Arm GNU Toolchain arm-none-eabi/13.2 Rel1/bin/../lib/gcc/arm-none-eabi/13.2.1/thumb/v7+fp/hard\libg_nano.a(libc_a-mprec.o)
                0x00005c54                __d2b
 .text.__ratio  0x00005d04       0x60 C:/Program Files (x86)/Arm GNU Toolchain arm-none-eabi/13.2 Rel1/bin/../lib/gcc/arm-none-eabi/13.2.1/thumb/v7+fp/hard\libg_nano.a(libc_a-mprec.o)
                0x00005d04                __ratio
 .text.__copybits
                0x00005d64       0x46 C:/Program Files (x86)/Arm GNU Toolchain arm-none-eabi/13.2 Rel1/bin/../lib/gcc/arm-none-eabi/13.2.1/thumb/v7+fp/hard\libg_nano.a(libc_a-mprec.o)
                0x00005d64                __copybits
 .text.__any_on
                0x00005daa       0x42 C:/Program Files (x86)/Arm GNU Toolchain arm-none-eabi/13.2 Rel1/bin/../lib/gcc/arm-none-eabi/13.2.1/thumb/v7+fp/hard\libg_nano.a(libc_a-mprec.o)
                0x00005daa                __any_on
 .text.sulp     0x00005dec       0x34 C:/Program Files (x86)/Arm GNU Toolchain arm-none-eabi/13.2 Rel1/bin/../lib/gcc/arm-none-eabi/13.2.1/thumb/v7+fp/hard\libg_nano.a(libc_a-strtod.o)
 .text._strtod_l
                0x00005e20      0xb34 C:/Program Files (x86)/Arm GNU Toolchain arm-none-eabi/13.2 Rel1/bin/../lib/gcc/arm-none-eabi/13.2.1/thumb/v7+fp/hard\libg_nano.a(libc_a-strtod.o)
                0x00005e20                _strtod_l
 .text._strtod_r
                0x00006954        0xc C:/Program Files (x86)/Arm GNU Toolchain arm-none-eabi/13.2 Rel1/bin/../lib/gcc/arm-none-eabi/13.2.1/thumb/v7+fp/hard\libg_nano.a(libc_a-strtod.o)
                0x00006954                _strtod_r
 .text._strtol_l.isra.0
                0x00006960       0xfc C:/Program Files (x86)/Arm GNU Toolchain arm-none-eabi/13.2 Rel1/bin/../lib/gcc/arm-none-eabi/13.2.1/thumb/v7+fp/hard\libg_nano.a(libc_a-strtol.o)
 .text._strtol_r
                0x00006a5c        0x4 C:/Program Files (x86)/Arm GNU Toolchain arm-none-eabi/13.2 Rel1/bin/../lib/gcc/arm-none-eabi/13.2.1/thumb/v7+fp/hard\libg_nano.a(libc_a-strtol.o)
                0x00006a5c                _strtol_r
 .text.__ssputs_r
                0x00006a60       0xb6 C:/Program Files (x86)/Arm GNU Toolchain arm-none-eabi/13.2 Rel1/bin/../lib/gcc/arm-none-eabi/13.2.1/thumb/v7+fp/hard\libg_nano.a(libc_a-nano-svfprintf.o)
                0x00006a60                __ssputs_r
 *fill*         0x00006b16        0x2 
 .text._svfprintf_r
                0x00006b18      0x1f8 C:/Program Files (x86)/Arm GNU Toolchain arm-none-eabi/13.2 Rel1/bin/../lib/gcc/arm-none-eabi/13.2.1/thumb/v7+fp/hard\libg_nano.a(libc_a-nano-svfprintf.o)
                0x00006b18                _svfiprintf_r
                0x00006b18                _svfprintf_r
 .text.__sfputc_r
                0x00006d10       0x2e C:/Program Files (x86)/Arm GNU Toolchain arm-none-eabi/13.2 Rel1/bin/../lib/gcc/arm-none-eabi/13.2.1/thumb/v7+fp/hard\libg_nano.a(libc_a-nano-vfprintf.o)
 .text.__sfputs_r
                0x00006d3e       0x24 C:/Program Files (x86)/Arm GNU Toolchain arm-none-eabi/13.2 Rel1/bin/../lib/gcc/arm-none-eabi/13.2.1/thumb/v7+fp/hard\libg_nano.a(libc_a-nano-vfprintf.o)
                0x00006d3e                __sfputs_r
 *fill*         0x00006d62        0x2 
 .text._vfprintf_r
                0x00006d64      0x230 C:/Program Files (x86)/Arm GNU Toolchain arm-none-eabi/13.2 Rel1/bin/../lib/gcc/arm-none-eabi/13.2.1/thumb/v7+fp/hard\libg_nano.a(libc_a-nano-vfprintf.o)
                0x00006d64                _vfprintf_r
                0x00006d64                _vfiprintf_r
 .text.__sflush_r
                0x00006f94      0x108 C:/Program Files (x86)/Arm GNU Toolchain arm-none-eabi/13.2 Rel1/bin/../lib/gcc/arm-none-eabi/13.2.1/thumb/v7+fp/hard\libg_nano.a(libc_a-fflush.o)
                0x00006f94                __sflush_r
 .text._fflush_r
                0x0000709c       0x50 C:/Program Files (x86)/Arm GNU Toolchain arm-none-eabi/13.2 Rel1/bin/../lib/gcc/arm-none-eabi/13.2.1/thumb/v7+fp/hard\libg_nano.a(libc_a-fflush.o)
                0x0000709c                _fflush_r
 .text.std      0x000070ec       0x6c C:/Program Files (x86)/Arm GNU Toolchain arm-none-eabi/13.2 Rel1/bin/../lib/gcc/arm-none-eabi/13.2.1/thumb/v7+fp/hard\libg_nano.a(libc_a-findfp.o)
 .text.stdio_exit_handler
                0x00007158       0x18 C:/Program Files (x86)/Arm GNU Toolchain arm-none-eabi/13.2 Rel1/bin/../lib/gcc/arm-none-eabi/13.2.1/thumb/v7+fp/hard\libg_nano.a(libc_a-findfp.o)
 .text.cleanup_stdio
                0x00007170       0x40 C:/Program Files (x86)/Arm GNU Toolchain arm-none-eabi/13.2 Rel1/bin/../lib/gcc/arm-none-eabi/13.2.1/thumb/v7+fp/hard\libg_nano.a(libc_a-findfp.o)
 .text.global_stdio_init.part.0
                0x000071b0       0x3c C:/Program Files (x86)/Arm GNU Toolchain arm-none-eabi/13.2 Rel1/bin/../lib/gcc/arm-none-eabi/13.2.1/thumb/v7+fp/hard\libg_nano.a(libc_a-findfp.o)
 .text.__sfp_lock_acquire
                0x000071ec        0xc C:/Program Files (x86)/Arm GNU Toolchain arm-none-eabi/13.2 Rel1/bin/../lib/gcc/arm-none-eabi/13.2.1/thumb/v7+fp/hard\libg_nano.a(libc_a-findfp.o)
                0x000071ec                __sfp_lock_acquire
 .text.__sfp_lock_release
                0x000071f8        0xc C:/Program Files (x86)/Arm GNU Toolchain arm-none-eabi/13.2 Rel1/bin/../lib/gcc/arm-none-eabi/13.2.1/thumb/v7+fp/hard\libg_nano.a(libc_a-findfp.o)
                0x000071f8                __sfp_lock_release
 .text.__sinit  0x00007204       0x30 C:/Program Files (x86)/Arm GNU Toolchain arm-none-eabi/13.2 Rel1/bin/../lib/gcc/arm-none-eabi/13.2.1/thumb/v7+fp/hard\libg_nano.a(libc_a-findfp.o)
                0x00007204                __sinit
 .text._fwalk_sglue
                0x00007234       0x3c C:/Program Files (x86)/Arm GNU Toolchain arm-none-eabi/13.2 Rel1/bin/../lib/gcc/arm-none-eabi/13.2.1/thumb/v7+fp/hard\libg_nano.a(libc_a-fwalk.o)
                0x00007234                _fwalk_sglue
 .text.__swhatbuf_r
                0x00007270       0x4a C:/Program Files (x86)/Arm GNU Toolchain arm-none-eabi/13.2 Rel1/bin/../lib/gcc/arm-none-eabi/13.2.1/thumb/v7+fp/hard\libg_nano.a(libc_a-makebuf.o)
                0x00007270                __swhatbuf_r
 .text.__smakebuf_r
                0x000072ba       0x78 C:/Program Files (x86)/Arm GNU Toolchain arm-none-eabi/13.2 Rel1/bin/../lib/gcc/arm-none-eabi/13.2.1/thumb/v7+fp/hard\libg_nano.a(libc_a-makebuf.o)
                0x000072ba                __smakebuf_r
 .text._putc_r  0x00007332       0x68 C:/Program Files (x86)/Arm GNU Toolchain arm-none-eabi/13.2 Rel1/bin/../lib/gcc/arm-none-eabi/13.2.1/thumb/v7+fp/hard\libg_nano.a(libc_a-putc.o)
                0x00007332                _putc_r
 .text.__sread  0x0000739a       0x22 C:/Program Files (x86)/Arm GNU Toolchain arm-none-eabi/13.2 Rel1/bin/../lib/gcc/arm-none-eabi/13.2.1/thumb/v7+fp/hard\libg_nano.a(libc_a-stdio.o)
                0x0000739a                __sread
 .text.__swrite
                0x000073bc       0x38 C:/Program Files (x86)/Arm GNU Toolchain arm-none-eabi/13.2 Rel1/bin/../lib/gcc/arm-none-eabi/13.2.1/thumb/v7+fp/hard\libg_nano.a(libc_a-stdio.o)
                0x000073bc                __swrite
 .text.__sseek  0x000073f4       0x24 C:/Program Files (x86)/Arm GNU Toolchain arm-none-eabi/13.2 Rel1/bin/../lib/gcc/arm-none-eabi/13.2.1/thumb/v7+fp/hard\libg_nano.a(libc_a-stdio.o)
                0x000073f4                __sseek
 .text.__sclose
                0x00007418        0x8 C:/Program Files (x86)/Arm GNU Toolchain arm-none-eabi/13.2 Rel1/bin/../lib/gcc/arm-none-eabi/13.2.1/thumb/v7+fp/hard\libg_nano.a(libc_a-stdio.o)
                0x00007418                __sclose
 .text.memmove  0x00007420       0x34 C:/Program Files (x86)/Arm GNU Toolchain arm-none-eabi/13.2 Rel1/bin/../lib/gcc/arm-none-eabi/13.2.1/thumb/v7+fp/hard\libg_nano.a(libc_a-memmove.o)
                0x00007420                memmove
 .text.strncmp  0x00007454       0x24 C:/Program Files (x86)/Arm GNU Toolchain arm-none-eabi/13.2 Rel1/bin/../lib/gcc/arm-none-eabi/13.2.1/thumb/v7+fp/hard\libg_nano.a(libc_a-strncmp.o)
                0x00007454                strncmp
 .text._raise_r
                0x00007478       0x50 C:/Program Files (x86)/Arm GNU Toolchain arm-none-eabi/13.2 Rel1/bin/../lib/gcc/arm-none-eabi/13.2.1/thumb/v7+fp/hard\libg_nano.a(libc_a-signal.o)
                0x00007478                _raise_r
 .text.raise    0x000074c8       0x10 C:/Program Files (x86)/Arm GNU Toolchain arm-none-eabi/13.2 Rel1/bin/../lib/gcc/arm-none-eabi/13.2.1/thumb/v7+fp/hard\libg_nano.a(libc_a-signal.o)
                0x000074c8                raise
 .text._close_r
                0x000074d8       0x20 C:/Program Files (x86)/Arm GNU Toolchain arm-none-eabi/13.2 Rel1/bin/../lib/gcc/arm-none-eabi/13.2.1/thumb/v7+fp/hard\libg_nano.a(libc_a-closer.o)
                0x000074d8                _close_r
 .text._fstat_r
                0x000074f8       0x24 C:/Program Files (x86)/Arm GNU Toolchain arm-none-eabi/13.2 Rel1/bin/../lib/gcc/arm-none-eabi/13.2.1/thumb/v7+fp/hard\libg_nano.a(libc_a-fstatr.o)
                0x000074f8                _fstat_r
 .text._isatty_r
                0x0000751c       0x20 C:/Program Files (x86)/Arm GNU Toolchain arm-none-eabi/13.2 Rel1/bin/../lib/gcc/arm-none-eabi/13.2.1/thumb/v7+fp/hard\libg_nano.a(libc_a-isattyr.o)
                0x0000751c                _isatty_r
 .text._lseek_r
                0x0000753c       0x24 C:/Program Files (x86)/Arm GNU Toolchain arm-none-eabi/13.2 Rel1/bin/../lib/gcc/arm-none-eabi/13.2.1/thumb/v7+fp/hard\libg_nano.a(libc_a-lseekr.o)
                0x0000753c                _lseek_r
 .text._read_r  0x00007560       0x24 C:/Program Files (x86)/Arm GNU Toolchain arm-none-eabi/13.2 Rel1/bin/../lib/gcc/arm-none-eabi/13.2.1/thumb/v7+fp/hard\libg_nano.a(libc_a-readr.o)
                0x00007560                _read_r
 .text._kill_r  0x00007584       0x24 C:/Program Files (x86)/Arm GNU Toolchain arm-none-eabi/13.2 Rel1/bin/../lib/gcc/arm-none-eabi/13.2.1/thumb/v7+fp/hard\libg_nano.a(libc_a-signalr.o)
                0x00007584                _kill_r
 .text._getpid_r
                0x000075a8        0x4 C:/Program Files (x86)/Arm GNU Toolchain arm-none-eabi/13.2 Rel1/bin/../lib/gcc/arm-none-eabi/13.2.1/thumb/v7+fp/hard\libg_nano.a(libc_a-signalr.o)
                0x000075a8                _getpid_r
 .text._write_r
                0x000075ac       0x24 C:/Program Files (x86)/Arm GNU Toolchain arm-none-eabi/13.2 Rel1/bin/../lib/gcc/arm-none-eabi/13.2.1/thumb/v7+fp/hard\libg_nano.a(libc_a-writer.o)
                0x000075ac                _write_r
 .text.nan      0x000075d0       0x10 C:/Program Files (x86)/Arm GNU Toolchain arm-none-eabi/13.2 Rel1/bin/../lib/gcc/arm-none-eabi/13.2.1/thumb/v7+fp/hard\libg_nano.a(libm_a-s_nan.o)
                0x000075d0                nan
 .text._calloc_r
                0x000075e0       0x28 C:/Program Files (x86)/Arm GNU Toolchain arm-none-eabi/13.2 Rel1/bin/../lib/gcc/arm-none-eabi/13.2.1/thumb/v7+fp/hard\libg_nano.a(libc_a-callocr.o)
                0x000075e0                _calloc_r
 .text.rshift   0x00007608       0x9e C:/Program Files (x86)/Arm GNU Toolchain arm-none-eabi/13.2 Rel1/bin/../lib/gcc/arm-none-eabi/13.2.1/thumb/v7+fp/hard\libg_nano.a(libc_a-gdtoa-gethex.o)
 .text.__hexdig_fun
                0x000076a6       0x2a C:/Program Files (x86)/Arm GNU Toolchain arm-none-eabi/13.2 Rel1/bin/../lib/gcc/arm-none-eabi/13.2.1/thumb/v7+fp/hard\libg_nano.a(libc_a-gdtoa-gethex.o)
                0x000076a6                __hexdig_fun
 .text.__gethex
                0x000076d0      0x41c C:/Program Files (x86)/Arm GNU Toolchain arm-none-eabi/13.2 Rel1/bin/../lib/gcc/arm-none-eabi/13.2.1/thumb/v7+fp/hard\libg_nano.a(libc_a-gdtoa-gethex.o)
                0x000076d0                __gethex
 .text.L_shift  0x00007aec       0x24 C:/Program Files (x86)/Arm GNU Toolchain arm-none-eabi/13.2 Rel1/bin/../lib/gcc/arm-none-eabi/13.2.1/thumb/v7+fp/hard\libg_nano.a(libc_a-gdtoa-hexnan.o)
 .text.__match  0x00007b10       0x28 C:/Program Files (x86)/Arm GNU Toolchain arm-none-eabi/13.2 Rel1/bin/../lib/gcc/arm-none-eabi/13.2.1/thumb/v7+fp/hard\libg_nano.a(libc_a-gdtoa-hexnan.o)
                0x00007b10                __match
 .text.__hexnan
                0x00007b38      0x134 C:/Program Files (x86)/Arm GNU Toolchain arm-none-eabi/13.2 Rel1/bin/../lib/gcc/arm-none-eabi/13.2.1/thumb/v7+fp/hard\libg_nano.a(libc_a-gdtoa-hexnan.o)
                0x00007b38                __hexnan
 .text.__ascii_mbtowc
                0x00007c6c       0x24 C:/Program Files (x86)/Arm GNU Toolchain arm-none-eabi/13.2 Rel1/bin/../lib/gcc/arm-none-eabi/13.2.1/thumb/v7+fp/hard\libg_nano.a(libc_a-mbtowc_r.o)
                0x00007c6c                __ascii_mbtowc
 .text._realloc_r
                0x00007c90       0x5c C:/Program Files (x86)/Arm GNU Toolchain arm-none-eabi/13.2 Rel1/bin/../lib/gcc/arm-none-eabi/13.2.1/thumb/v7+fp/hard\libg_nano.a(libc_a-reallocr.o)
                0x00007c90                _realloc_r
 .text.__ascii_wctomb
                0x00007cec       0x1a C:/Program Files (x86)/Arm GNU Toolchain arm-none-eabi/13.2 Rel1/bin/../lib/gcc/arm-none-eabi/13.2.1/thumb/v7+fp/hard\libg_nano.a(libc_a-wctomb_r.o)
                0x00007cec                __ascii_wctomb
 .text._malloc_usable_size_r
                0x00007d06       0x10 C:/Program Files (x86)/Arm GNU Toolchain arm-none-eabi/13.2 Rel1/bin/../lib/gcc/arm-none-eabi/13.2.1/thumb/v7+fp/hard\libg_nano.a(libc_a-msizer.o)
                0x00007d06                _malloc_usable_size_r
 *fill*         0x00007d16        0x2 
 .text          0x00007d18      0x278 C:/Program Files (x86)/Arm GNU Toolchain arm-none-eabi/13.2 Rel1/bin/../lib/gcc/arm-none-eabi/13.2.1/thumb/v7+fp/hard\libgcc.a(_udivsi3.o)
                0x00007d18                __aeabi_uidiv
                0x00007d18                __udivsi3
                0x00007f74                __aeabi_uidivmod
 .text          0x00007f90      0x2b0 C:/Program Files (x86)/Arm GNU Toolchain arm-none-eabi/13.2 Rel1/bin/../lib/gcc/arm-none-eabi/13.2.1/thumb/v7+fp/hard\libgcc.a(_divsi3.o)
                0x00007f90                __divsi3
                0x00007f90                __aeabi_idiv
                0x00008224                __aeabi_idivmod
 .text          0x00008240      0x378 C:/Program Files (x86)/Arm GNU Toolchain arm-none-eabi/13.2 Rel1/bin/../lib/gcc/arm-none-eabi/13.2.1/thumb/v7+fp/hard\libgcc.a(_arm_addsubdf3.o)
                0x00008240                __aeabi_drsub
                0x00008248                __aeabi_dsub
                0x00008248                __subdf3
                0x0000824c                __aeabi_dadd
                0x0000824c                __adddf3
                0x000084c4                __floatunsidf
                0x000084c4                __aeabi_ui2d
                0x000084e4                __floatsidf
                0x000084e4                __aeabi_i2d
                0x00008508                __aeabi_f2d
                0x00008508                __extendsfdf2
                0x0000854c                __floatundidf
                0x0000854c                __aeabi_ul2d
                0x0000855c                __floatdidf
                0x0000855c                __aeabi_l2d
 .text.__fixdfdi
                0x000085b8       0x30 C:/Program Files (x86)/Arm GNU Toolchain arm-none-eabi/13.2 Rel1/bin/../lib/gcc/arm-none-eabi/13.2.1/thumb/v7+fp/hard\libgcc.a(_fixdfdi.o)
                0x000085b8                __fixdfdi
                0x000085b8                __aeabi_d2lz
 .text.__fixunsdfdi
                0x000085e8       0x40 C:/Program Files (x86)/Arm GNU Toolchain arm-none-eabi/13.2 Rel1/bin/../lib/gcc/arm-none-eabi/13.2.1/thumb/v7+fp/hard\libgcc.a(_fixunsdfdi.o)
                0x000085e8                __fixunsdfdi
                0x000085e8                __aeabi_d2ulz
 *(.reset_handler)
 .reset_handler
                0x00008628       0x2c ./rzt/fsp/src/bsp/cmsis/Device/RENESAS/Source/cr/startup_core.o
                0x00008628                Reset_Handler
 *(.init)
 *(.fini)
 *crtbegin.o(.ctors)
 *crtbegin?.o(.ctors)
 *(EXCLUDE_FILE(*crtend.o *crtend?.o) .ctors)
 *(SORT_BY_NAME(.ctors.*))
 *(.ctors)
                0x00008654                        _ctor_end = .
 *crtbegin.o(.dtors)
 *crtbegin?.o(.dtors)
 *(EXCLUDE_FILE(*crtend.o *crtend?.o) .dtors)
 *(SORT_BY_NAME(.dtors.*))
 *(.dtors)
                0x00008654                        _dtor_end = .
 *(.eh_frame*)
 .eh_frame      0x00008654       0x28 C:/Program Files (x86)/Arm GNU Toolchain arm-none-eabi/13.2 Rel1/bin/../lib/gcc/arm-none-eabi/13.2.1/thumb/v7+fp/hard\libg_nano.a(libc_a-strlen.o)

.glue_7         0x0000867c        0x0 load address 0x6000a364
 .glue_7        0x0000867c        0x0 linker stubs

.glue_7t        0x0000867c        0x0 load address 0x6000a364
 .glue_7t       0x0000867c        0x0 linker stubs

.vfp11_veneer   0x0000867c        0x0 load address 0x6000a364
 .vfp11_veneer  0x0000867c        0x0 linker stubs

.v4_bx          0x0000867c        0x0 load address 0x6000a364
 .v4_bx         0x0000867c        0x0 linker stubs

.iplt           0x0000867c        0x0 load address 0x6000a364
 .iplt          0x0000867c        0x0 ./src/hal_entry.o

.rvectors       0x0000867c        0x0
                0x0000867c                        _rvectors_start = .
 *(.rvectors)
                0x0000867c                        _rvectors_end = .

.ARM.extab
 *(.ARM.extab* .gnu.linkonce.armextab.*)

.ARM.exidx      0x0000867c        0x8 load address 0x6000a364
                0x0000867c                        __exidx_start = .
 *(.ARM.exidx* .gnu.linkonce.armexidx.*)
 .ARM.exidx.text.__udivmoddi4
                0x0000867c        0x8 C:/Program Files (x86)/Arm GNU Toolchain arm-none-eabi/13.2 Rel1/bin/../lib/gcc/arm-none-eabi/13.2.1/thumb/v7+fp/hard\libgcc.a(_udivmoddi4.o)
 .ARM.exidx     0x00008684        0x0 C:/Program Files (x86)/Arm GNU Toolchain arm-none-eabi/13.2 Rel1/bin/../lib/gcc/arm-none-eabi/13.2.1/thumb/v7+fp/hard\libg_nano.a(libc_a-strlen.o)
                                  0x8 (size before relaxing)
                0x00008684                        __exidx_end = .
                0x00008684                        _text_end = .

.data           0x00008684     0x1a84 load address 0x6000a370
                0x00008684                        _data_start = .
 *(vtable)
 *(.data.*)
 .data.g_uart0_baud_setting
                0x00008684        0x4 ./rzt_gen/hal_data.o
                0x00008684                g_uart0_baud_setting
 .data.default_num_contexts
                0x00008688        0x4 ./coremark/core_portme.o
                0x00008688                default_num_contexts
 .data.seed4_volatile
                0x0000868c        0x4 ./coremark/core_portme.o
                0x0000868c                seed4_volatile
 .data.seed3_volatile
                0x00008690        0x4 ./coremark/core_portme.o
                0x00008690                seed3_volatile
 .data._impure_ptr
                0x00008694        0x4 C:/Program Files (x86)/Arm GNU Toolchain arm-none-eabi/13.2 Rel1/bin/../lib/gcc/arm-none-eabi/13.2.1/thumb/v7+fp/hard\libg_nano.a(libc_a-impure.o)
                0x00008694                _impure_ptr
 .data._impure_data
                0x00008698       0x4c C:/Program Files (x86)/Arm GNU Toolchain arm-none-eabi/13.2 Rel1/bin/../lib/gcc/arm-none-eabi/13.2.1/thumb/v7+fp/hard\libg_nano.a(libc_a-impure.o)
                0x00008698                _impure_data
 .data.__sglue  0x000086e4        0xc C:/Program Files (x86)/Arm GNU Toolchain arm-none-eabi/13.2 Rel1/bin/../lib/gcc/arm-none-eabi/13.2.1/thumb/v7+fp/hard\libg_nano.a(libc_a-findfp.o)
                0x000086e4                __sglue
 .data.__global_locale
                0x000086f0      0x16c C:/Program Files (x86)/Arm GNU Toolchain arm-none-eabi/13.2 Rel1/bin/../lib/gcc/arm-none-eabi/13.2.1/thumb/v7+fp/hard\libg_nano.a(libc_a-locale.o)
                0x000086f0                __global_locale
 *(.data)
 *(.rodata*)
 .rodata.hal_entry.str1.4
                0x0000885c      0x5d1 ./src/hal_entry.o
                                 0xf7 (size before relaxing)
 *fill*         0x00008e2d        0x3 
 .rodata.__func__.0
                0x00008e30        0xa ./src/hal_entry.o
 *fill*         0x00008e3a        0x2 
 .rodata.__FUNCTION__.1
                0x00008e3c        0xa ./src/hal_entry.o
 *fill*         0x00008e46        0x2 
 .rodata.g_ioport_cfg_extend
                0x00008e48       0x26 ./rzt_gen/common_data.o
                0x00008e48                g_ioport_cfg_extend
 *fill*         0x00008e6e        0x2 
 .rodata.g_timer0
                0x00008e70        0xc ./rzt_gen/hal_data.o
                0x00008e70                g_timer0
 .rodata.g_timer0_cfg
                0x00008e7c       0x20 ./rzt_gen/hal_data.o
                0x00008e7c                g_timer0_cfg
 .rodata.g_timer0_extend
                0x00008e9c       0x38 ./rzt_gen/hal_data.o
                0x00008e9c                g_timer0_extend
 .rodata.g_uart0_cfg
                0x00008ed4       0x28 ./rzt_gen/hal_data.o
                0x00008ed4                g_uart0_cfg
 .rodata.g_uart0_cfg_extend
                0x00008efc       0x14 ./rzt_gen/hal_data.o
                0x00008efc                g_uart0_cfg_extend
 .rodata.g_shared_memory0_cfg
                0x00008f10       0x18 ./rzt_gen/hal_data.o
                0x00008f10                g_shared_memory0_cfg
 .rodata.g_shared_memory0_ext_cfg
                0x00008f28        0x8 ./rzt_gen/hal_data.o
                0x00008f28                g_shared_memory0_ext_cfg
 .rodata.g_icu_inter_cpu_irq0
                0x00008f30        0xc ./rzt_gen/hal_data.o
                0x00008f30                g_icu_inter_cpu_irq0
 .rodata.g_icu_inter_cpu_irq0_cfg
                0x00008f3c       0x10 ./rzt_gen/hal_data.o
                0x00008f3c                g_icu_inter_cpu_irq0_cfg
 .rodata.g_icu_inter_cpu_irq1
                0x00008f4c        0xc ./rzt_gen/hal_data.o
                0x00008f4c                g_icu_inter_cpu_irq1
 .rodata.g_icu_inter_cpu_irq1_cfg
                0x00008f58       0x10 ./rzt_gen/hal_data.o
                0x00008f58                g_icu_inter_cpu_irq1_cfg
 .rodata.g_bsp_pin_cfg
                0x00008f68        0xc ./rzt_gen/pin_data.o
                0x00008f68                g_bsp_pin_cfg
 .rodata.g_bsp_pin_cfg_data
                0x00008f74      0x3f0 ./rzt_gen/pin_data.o
                0x00008f74                g_bsp_pin_cfg_data
 *fill*         0x00009364        0x4 
 .rodata.g_vector_table
                0x00009368      0x700 ./rzt_gen/vector_data.o
                0x00009368                g_vector_table
 .rodata.g_icu_inter_cpu_irq_on_icu
                0x00009a68       0x10 ./rzt/fsp/src/r_icu_inter_cpu_irq/r_icu_inter_cpu_irq.o
                0x00009a68                g_icu_inter_cpu_irq_on_icu
 .rodata.g_timer_on_gpt
                0x00009a78       0x30 ./rzt/fsp/src/r_gpt/r_gpt.o
                0x00009a78                g_timer_on_gpt
 .rodata.BSP_GICD_ICFGR_INIT
                0x00009aa8       0x70 ./rzt/fsp/src/bsp/mcu/rzt2m/bsp_irq_sense.o
                0x00009aa8                BSP_GICD_ICFGR_INIT
 .rodata.g_bsp_master_mpu6_cfg
                0x00009b18       0x40 ./rzt/fsp/src/bsp/cmsis/Device/RENESAS/Source/system.o
                0x00009b18                g_bsp_master_mpu6_cfg
 .rodata.g_bsp_master_mpu4_cfg
                0x00009b58       0x40 ./rzt/fsp/src/bsp/cmsis/Device/RENESAS/Source/system.o
                0x00009b58                g_bsp_master_mpu4_cfg
 .rodata.g_bsp_master_mpu3_cfg
                0x00009b98       0x40 ./rzt/fsp/src/bsp/cmsis/Device/RENESAS/Source/system.o
                0x00009b98                g_bsp_master_mpu3_cfg
 .rodata.g_bsp_master_mpu2_cfg
                0x00009bd8       0x40 ./rzt/fsp/src/bsp/cmsis/Device/RENESAS/Source/system.o
                0x00009bd8                g_bsp_master_mpu2_cfg
 .rodata.g_bsp_master_mpu1_cfg
                0x00009c18       0x40 ./rzt/fsp/src/bsp/cmsis/Device/RENESAS/Source/system.o
                0x00009c18                g_bsp_master_mpu1_cfg
 .rodata.g_bsp_master_mpu0_cfg
                0x00009c58       0x40 ./rzt/fsp/src/bsp/cmsis/Device/RENESAS/Source/system.o
                0x00009c58                g_bsp_master_mpu0_cfg
 .rodata.coremain.str1.4
                0x00009c98      0x428 ./coremark/core_main.o
 .rodata.str1.4
                0x00009c98       0xad ./coremark/core_state.o
 .rodata.errpat
                0x00009c98       0x10 ./coremark/core_state.o
 .rodata.scipat
                0x00009ca8       0x10 ./coremark/core_state.o
 .rodata.floatpat
                0x00009cb8       0x10 ./coremark/core_state.o
 .rodata.intpat
                0x00009cc8       0x10 ./coremark/core_state.o
 .rodata.__assert_func.str1.1
                0x00009cd8      0x1d9 C:/Program Files (x86)/Arm GNU Toolchain arm-none-eabi/13.2 Rel1/bin/../lib/gcc/arm-none-eabi/13.2.1/thumb/v7+fp/hard\libg_nano.a(libc_a-assert.o)
                                 0x3d (size before relaxing)
 .rodata._printf_float.str1.1
                0x00009eb1       0x12 C:/Program Files (x86)/Arm GNU Toolchain arm-none-eabi/13.2 Rel1/bin/../lib/gcc/arm-none-eabi/13.2.1/thumb/v7+fp/hard\libg_nano.a(libc_a-nano-vfprintf_float.o)
 .rodata._printf_i.str1.1
                0x00009eb1       0x22 C:/Program Files (x86)/Arm GNU Toolchain arm-none-eabi/13.2 Rel1/bin/../lib/gcc/arm-none-eabi/13.2.1/thumb/v7+fp/hard\libg_nano.a(libc_a-nano-vfprintf_i.o)
 .rodata._scanf_float.str1.1
                0x00009eb1        0x6 C:/Program Files (x86)/Arm GNU Toolchain arm-none-eabi/13.2 Rel1/bin/../lib/gcc/arm-none-eabi/13.2.1/thumb/v7+fp/hard\libg_nano.a(libc_a-nano-vfscanf_float.o)
 .rodata._dtoa_r.str1.1
                0x00009eb1       0x90 C:/Program Files (x86)/Arm GNU Toolchain arm-none-eabi/13.2 Rel1/bin/../lib/gcc/arm-none-eabi/13.2.1/thumb/v7+fp/hard\libg_nano.a(libc_a-dtoa.o)
 .rodata._Balloc.str1.1
                0x00009eb1       0x71 C:/Program Files (x86)/Arm GNU Toolchain arm-none-eabi/13.2 Rel1/bin/../lib/gcc/arm-none-eabi/13.2.1/thumb/v7+fp/hard\libg_nano.a(libc_a-mprec.o)
 .rodata.__multadd.str1.1
                0x00009eb1       0x11 C:/Program Files (x86)/Arm GNU Toolchain arm-none-eabi/13.2 Rel1/bin/../lib/gcc/arm-none-eabi/13.2.1/thumb/v7+fp/hard\libg_nano.a(libc_a-mprec.o)
 *fill*         0x00009eb1        0x3 
 .rodata.p05.0  0x00009eb4        0xc C:/Program Files (x86)/Arm GNU Toolchain arm-none-eabi/13.2 Rel1/bin/../lib/gcc/arm-none-eabi/13.2.1/thumb/v7+fp/hard\libg_nano.a(libc_a-mprec.o)
 .rodata.__mprec_bigtens
                0x00009ec0       0x28 C:/Program Files (x86)/Arm GNU Toolchain arm-none-eabi/13.2 Rel1/bin/../lib/gcc/arm-none-eabi/13.2.1/thumb/v7+fp/hard\libg_nano.a(libc_a-mprec.o)
                0x00009ec0                __mprec_bigtens
 .rodata.__mprec_tens
                0x00009ee8       0xc8 C:/Program Files (x86)/Arm GNU Toolchain arm-none-eabi/13.2 Rel1/bin/../lib/gcc/arm-none-eabi/13.2.1/thumb/v7+fp/hard\libg_nano.a(libc_a-mprec.o)
                0x00009ee8                __mprec_tens
 .rodata._strtod_l.str1.1
                0x00009fb0        0xf C:/Program Files (x86)/Arm GNU Toolchain arm-none-eabi/13.2 Rel1/bin/../lib/gcc/arm-none-eabi/13.2.1/thumb/v7+fp/hard\libg_nano.a(libc_a-strtod.o)
 .rodata.fpinan.0
                0x00009fb0       0x14 C:/Program Files (x86)/Arm GNU Toolchain arm-none-eabi/13.2 Rel1/bin/../lib/gcc/arm-none-eabi/13.2.1/thumb/v7+fp/hard\libg_nano.a(libc_a-strtod.o)
 .rodata.fpi.1  0x00009fc4       0x14 C:/Program Files (x86)/Arm GNU Toolchain arm-none-eabi/13.2 Rel1/bin/../lib/gcc/arm-none-eabi/13.2.1/thumb/v7+fp/hard\libg_nano.a(libc_a-strtod.o)
 .rodata.tinytens
                0x00009fd8       0x28 C:/Program Files (x86)/Arm GNU Toolchain arm-none-eabi/13.2 Rel1/bin/../lib/gcc/arm-none-eabi/13.2.1/thumb/v7+fp/hard\libg_nano.a(libc_a-strtod.o)
 .rodata._ctype_
                0x0000a000      0x101 C:/Program Files (x86)/Arm GNU Toolchain arm-none-eabi/13.2 Rel1/bin/../lib/gcc/arm-none-eabi/13.2.1/thumb/v7+fp/hard\libg_nano.a(libc_a-ctype_.o)
                0x0000a000                _ctype_
 .rodata._svfprintf_r.str1.1
                0x0000a101       0x11 C:/Program Files (x86)/Arm GNU Toolchain arm-none-eabi/13.2 Rel1/bin/../lib/gcc/arm-none-eabi/13.2.1/thumb/v7+fp/hard\libg_nano.a(libc_a-nano-svfprintf.o)
 .rodata._vfprintf_r.str1.1
                0x0000a101       0x11 C:/Program Files (x86)/Arm GNU Toolchain arm-none-eabi/13.2 Rel1/bin/../lib/gcc/arm-none-eabi/13.2.1/thumb/v7+fp/hard\libg_nano.a(libc_a-nano-vfprintf.o)
 .rodata._setlocale_r.str1.1
                0x0000a101        0x9 C:/Program Files (x86)/Arm GNU Toolchain arm-none-eabi/13.2 Rel1/bin/../lib/gcc/arm-none-eabi/13.2.1/thumb/v7+fp/hard\libg_nano.a(libc_a-locale.o)
 .rodata.str1.1
                0x0000a101        0x2 C:/Program Files (x86)/Arm GNU Toolchain arm-none-eabi/13.2 Rel1/bin/../lib/gcc/arm-none-eabi/13.2.1/thumb/v7+fp/hard\libg_nano.a(libc_a-locale.o)
 .rodata.__gethex.str1.1
                0x0000a101       0x74 C:/Program Files (x86)/Arm GNU Toolchain arm-none-eabi/13.2 Rel1/bin/../lib/gcc/arm-none-eabi/13.2.1/thumb/v7+fp/hard\libg_nano.a(libc_a-gdtoa-gethex.o)
                0x0000a101                        _erodata = .
                0x0000a178                        . = ALIGN (0x8)
 *fill*         0x0000a101        0x7 
                0x0000a108                        PROVIDE (__preinit_array_start = .)
 *(.preinit_array)
                0x0000a108                        PROVIDE (__preinit_array_end = .)
                0x0000a108                        . = ALIGN (0x8)
                0x0000a108                        PROVIDE (__init_array_start = .)
 *(SORT_BY_NAME(.init_array.*))
 *(.init_array)
                0x0000a108                        PROVIDE (__init_array_end = .)
                0x0000a108                        . = ALIGN (0x8)
                [!provide]                        PROVIDE (__fini_array_start = .)
 *(SORT_BY_NAME(.fini_array.*))
 *(.fini_array)
                [!provide]                        PROVIDE (__fini_array_end = .)
 *(.jcr*)
                0x0000a108                        . = ALIGN (0x8)

.igot.plt       0x0000a108        0x0 load address 0x6000bdf4
 .igot.plt      0x0000a108        0x0 ./src/hal_entry.o

.got            0x0000a108        0x0
 *(.got)
 *(.got.plt)
                0x0000a108                        _data_end = .

.bss            0x0000a108      0x308 load address 0x6000bdf8
                0x0000a108                        . = ALIGN (0x8)
                0x0000a108                        __bss_start__ = .
                0x0000a108                        _bss = .
 *(.bss*)
 .bss.coremarkTick
                0x0000a108        0x4 ./src/hal_entry.o
                0x0000a108                coremarkTick
 .bss.data_receive_flag
                0x0000a10c        0x4 ./src/hal_entry.o
 .bss.receive_buffer
                0x0000a110      0x100 ./src/hal_entry.o
                0x0000a110                receive_buffer
 .bss.g_ioport_ctrl
                0x0000a210        0xc ./rzt_gen/common_data.o
                0x0000a210                g_ioport_ctrl
 .bss.g_timer0_ctrl
                0x0000a21c       0x20 ./rzt_gen/hal_data.o
                0x0000a21c                g_timer0_ctrl
 .bss.g_uart0_ctrl
                0x0000a23c       0x30 ./rzt_gen/hal_data.o
                0x0000a23c                g_uart0_ctrl
 .bss.g_shared_memory0_ctrl
                0x0000a26c       0x18 ./rzt_gen/hal_data.o
                0x0000a26c                g_shared_memory0_ctrl
 .bss.g_icu_inter_cpu_irq0_ctrl
                0x0000a284       0x14 ./rzt_gen/hal_data.o
                0x0000a284                g_icu_inter_cpu_irq0_ctrl
 .bss.g_icu_inter_cpu_irq1_ctrl
                0x0000a298       0x14 ./rzt_gen/hal_data.o
                0x0000a298                g_icu_inter_cpu_irq1_ctrl
 .bss.g_protect_port_counter
                0x0000a2ac        0x4 ./rzt/fsp/src/bsp/mcu/all/bsp_io.o
                0x0000a2ac                g_protect_port_counter
 .bss.current_heap_end.0
                0x0000a2b0        0x4 ./rzt/fsp/src/bsp/mcu/all/bsp_sbrk.o
 .bss.seed5_volatile
                0x0000a2b4        0x4 ./coremark/core_portme.o
                0x0000a2b4                seed5_volatile
 .bss.seed2_volatile
                0x0000a2b8        0x4 ./coremark/core_portme.o
                0x0000a2b8                seed2_volatile
 .bss.seed1_volatile
                0x0000a2bc        0x4 ./coremark/core_portme.o
                0x0000a2bc                seed1_volatile
 .bss.__malloc_sbrk_start
                0x0000a2c0        0x4 C:/Program Files (x86)/Arm GNU Toolchain arm-none-eabi/13.2 Rel1/bin/../lib/gcc/arm-none-eabi/13.2.1/thumb/v7+fp/hard\libg_nano.a(libc_a-mallocr.o)
                0x0000a2c0                __malloc_sbrk_start
 .bss.__malloc_free_list
                0x0000a2c4        0x4 C:/Program Files (x86)/Arm GNU Toolchain arm-none-eabi/13.2 Rel1/bin/../lib/gcc/arm-none-eabi/13.2.1/thumb/v7+fp/hard\libg_nano.a(libc_a-mallocr.o)
                0x0000a2c4                __malloc_free_list
 .bss.__lock___malloc_recursive_mutex
                0x0000a2c8        0x1 C:/Program Files (x86)/Arm GNU Toolchain arm-none-eabi/13.2 Rel1/bin/../lib/gcc/arm-none-eabi/13.2.1/thumb/v7+fp/hard\libg_nano.a(libc_a-lock.o)
                0x0000a2c8                __lock___malloc_recursive_mutex
 .bss.__lock___sfp_recursive_mutex
                0x0000a2c9        0x1 C:/Program Files (x86)/Arm GNU Toolchain arm-none-eabi/13.2 Rel1/bin/../lib/gcc/arm-none-eabi/13.2.1/thumb/v7+fp/hard\libg_nano.a(libc_a-lock.o)
                0x0000a2c9                __lock___sfp_recursive_mutex
 *fill*         0x0000a2ca        0x2 
 .bss.__sf      0x0000a2cc      0x138 C:/Program Files (x86)/Arm GNU Toolchain arm-none-eabi/13.2 Rel1/bin/../lib/gcc/arm-none-eabi/13.2.1/thumb/v7+fp/hard\libg_nano.a(libc_a-findfp.o)
                0x0000a2cc                __sf
 .bss.__stdio_exit_handler
                0x0000a404        0x4 C:/Program Files (x86)/Arm GNU Toolchain arm-none-eabi/13.2 Rel1/bin/../lib/gcc/arm-none-eabi/13.2.1/thumb/v7+fp/hard\libg_nano.a(libc_a-findfp.o)
                0x0000a404                __stdio_exit_handler
 .bss.errno     0x0000a408        0x4 C:/Program Files (x86)/Arm GNU Toolchain arm-none-eabi/13.2 Rel1/bin/../lib/gcc/arm-none-eabi/13.2.1/thumb/v7+fp/hard\libg_nano.a(libc_a-reent.o)
                0x0000a408                errno
 *(COMMON)
                0x0000a410                        . = ALIGN (0x8)
 *fill*         0x0000a40c        0x4 
                0x0000a410                        __bss_end__ = .
                0x0000a410                        _ebss = .
                0x0000a410                        _end = .

.heap           0x0000a410     0x8000 load address 0x6000c100
                0x0000a410                        . = ALIGN (0x8)
                0x0000a410                        __HeapBase = .
 *(.heap)
 .heap          0x0000a410     0x8000 ./rzt/fsp/src/bsp/cmsis/Device/RENESAS/Source/cr/startup_core.o
                0x00012410                        __HeapLimit = .

.aarch64_stack  0x00012410        0x0
                0x00012410                        . = ALIGN (0x8)
                0x00012410                        __AArch64StackBase = .
 *(.aarch64_stack*)
                0x00012410                        __AArch64StackLimit = .

.thread_stack   0x00012410        0x0
                0x00012410                        . = ALIGN (0x8)
                0x00012410                        __ThreadStackBase = .
 *(.stack*)
                0x00012410                        __ThreadStackLimit = .

.sys_stack      0x00103d18     0x1000 load address 0x60001d68
                0x00103d18                        . = ALIGN (0x8)
                0x00103d18                        __SysStackBase = .
 *(.sys_stack)
 .sys_stack     0x00103d18     0x1000 ./rzt/fsp/src/bsp/cmsis/Device/RENESAS/Source/cr/startup_core.o
                0x00104d18                        __SysStackLimit = .

.svc_stack      0x00104d18     0x1000 load address 0x60002d68
                0x00104d18                        . = ALIGN (0x8)
                0x00104d18                        __SvcStackBase = .
 *(.svc_stack)
 .svc_stack     0x00104d18     0x1000 ./rzt/fsp/src/bsp/cmsis/Device/RENESAS/Source/cr/startup_core.o
                0x00105d18                        __SvcStackLimit = .

.irq_stack      0x00105d18     0x1000 load address 0x60003d68
                0x00105d18                        . = ALIGN (0x8)
                0x00105d18                        __IrqStackBase = .
 *(.irq_stack)
 .irq_stack     0x00105d18     0x1000 ./rzt/fsp/src/bsp/cmsis/Device/RENESAS/Source/cr/startup_core.o
                0x00106d18                        __IrqStackLimit = .

.fiq_stack      0x00106d18     0x1000 load address 0x60004d68
                0x00106d18                        . = ALIGN (0x8)
                0x00106d18                        __FiqStackBase = .
 *(.fiq_stack)
 .fiq_stack     0x00106d18     0x1000 ./rzt/fsp/src/bsp/cmsis/Device/RENESAS/Source/cr/startup_core.o
                0x00107d18                        __FiqStackLimit = .

.und_stack      0x00107d18     0x1000 load address 0x60005d68
                0x00107d18                        . = ALIGN (0x8)
                0x00107d18                        __UndStackBase = .
 *(.und_stack)
 .und_stack     0x00107d18     0x1000 ./rzt/fsp/src/bsp/cmsis/Device/RENESAS/Source/cr/startup_core.o
                0x00108d18                        __UndStackLimit = .

.abt_stack      0x00108d18     0x1000 load address 0x60006d68
                0x00108d18                        . = ALIGN (0x8)
                0x00108d18                        __AbtStackBase = .
 *(.abt_stack)
 .abt_stack     0x00108d18     0x1000 ./rzt/fsp/src/bsp/cmsis/Device/RENESAS/Source/cr/startup_core.o
                0x00109d18                        __AbtStackLimit = .

.data_noncache  0x30198000        0x0 load address 0x6000bdf4
                0x30198000                        . = ((0x0 == HAS_SYSTEM_RAM_MIRROR) && (DEFINED (CR52_0) || DEFINED (CR52_1)))?ALIGN (0x40):ALIGN (0x8)
                0x30198000                        _data_noncache_start = .
 *(.data_noncache*)
                0x30198000                        _data_noncache_end = .

.dmac_link_mode
                0x3019c000        0x0 load address 0x6000bdf4
                0x3019c000                        . = ALIGN (0x8)
                0x3019c000                        _dmac_link_mode_start = .
 *(.dmac_link_mode*)
                0x3019c000                        _dmac_link_mode_end = .

.shared_noncache_buffer
                0x301a0000        0x0 load address 0x6000bdf4
                0x301a0000                        . = ALIGN (0x20)
                0x301a0000                        _sncbuffer_start = .
 *(.shared_noncache_buffer*)
                0x301a0000                        _sncbuffer_end = .

.noncache_buffer
                0x301c0000        0x0 load address 0x6000bdf4
                0x301c0000                        . = ALIGN (0x20)
                0x301c0000                        _ncbuffer_start = .
 *(.noncache_buffer*)
                0x301c0000                        _ncbuffer_end = .
                0x10000000                        SECONDARY_START = ((0x1 == _RZT_ORDINAL) && DEFINED (CR52_0))?SYSTEM_RAM_ALIGN_START:ALIGN (__ThreadStackLimit, 0x20000)

.secondary      0x10000000    0x18b50 load address 0x60020000
                0x10000000                        . = ALIGN (0x20000)
                0x10000000                        _secondary_start = .
 *(.secondary)
 .secondary     0x10000000    0x18b50 E:/RS_workspace/rzt2m_coremark_fsp220_cpu1/Debug/secondary.o
                0x10000000                _binary_secondary_bin_start
                0x10018b50                _binary_secondary_bin_end
                0x10018b50                        _secondary_end = .
                0x60000000                        __ddsc_xSPI0_CS0_SPACE_START = ORIGIN (xSPI0_CS0_SPACE)
                0x6000bdf4                        __ddsc_xSPI0_CS0_SPACE_END = (0x1 == _RZT_ORDINAL)?noncache_flash_contents_end:__ddsc_xSPI0_CS0_SPACE_START
                0x00000000                        __ddsc_ATCM_START = ORIGIN (ATCM)
                0x00012410                        __ddsc_ATCM_END = ((0x1 == _RZT_ORDINAL) && DEFINED (CR52_0))?__ThreadStackLimit:__ddsc_ATCM_START
                0x00100000                        __ddsc_BTCM_START = ORIGIN (BTCM)
                0x00109d18                        __ddsc_BTCM_END = ((0x1 == _RZT_ORDINAL) && DEFINED (CR52_0))?__AbtStackLimit:__ddsc_BTCM_START
                0x10000000                        __ddsc_SYSTEM_RAM_START = ORIGIN (SYSTEM_RAM)
                0x10000000                        __ddsc_SYSTEM_RAM_END = (0x1 == _RZT_ORDINAL)?DEFINED (CR52_0)?__ddsc_SYSTEM_RAM_START:__ThreadStackLimit:((0x0 == HAS_SYSTEM_RAM_MIRROR) && (DEFINED (CR52_0) || DEFINED (CR52_1)))?_ncbuffer_end:__ThreadStackLimit
OUTPUT(rzt2m_coremark_fsp220_cpu0.elf elf32-littlearm)
LOAD linker stubs

.rel.dyn        0x10018b50        0x0 load address 0x60038b50
 .rel.iplt      0x10018b50        0x0 ./src/hal_entry.o

.debug_info     0x00000000    0x2eba3
 .debug_info    0x00000000     0x4333 ./src/hal_entry.o
 .debug_info    0x00004333      0x7d3 ./src/syscall.o
 .debug_info    0x00004b06     0x16dd ./rzt_gen/common_data.o
 .debug_info    0x000061e3     0x5814 ./rzt_gen/hal_data.o
 .debug_info    0x0000b9f7       0xb0 ./rzt_gen/main.o
 .debug_info    0x0000baa7     0x22f1 ./rzt_gen/pin_data.o
 .debug_info    0x0000dd98       0xea ./rzt_gen/vector_data.o
 .debug_info    0x0000de82     0x13ea ./rzt/fsp/src/r_shared_memory/r_shared_memory.o
 .debug_info    0x0000f26c     0x6259 ./rzt/fsp/src/r_sci_uart/r_sci_uart.o
 .debug_info    0x000154c5     0x388f ./rzt/fsp/src/r_ioport/r_ioport.o
 .debug_info    0x00018d54     0x464a ./rzt/fsp/src/r_icu_inter_cpu_irq/r_icu_inter_cpu_irq.o
 .debug_info    0x0001d39e     0x609b ./rzt/fsp/src/r_gpt/r_gpt.o
 .debug_info    0x00023439       0xe4 ./rzt/fsp/src/bsp/mcu/rzt2m/bsp_irq_sense.o
 .debug_info    0x0002351d       0xbd ./rzt/fsp/src/bsp/mcu/rzt2m/bsp_loader_param.o
 .debug_info    0x000235da       0xba ./rzt/fsp/src/bsp/mcu/all/cr/bsp_delay_core.o
 .debug_info    0x00023694     0x11e5 ./rzt/fsp/src/bsp/mcu/all/cr/bsp_irq_core.o
 .debug_info    0x00024879      0xfad ./rzt/fsp/src/bsp/mcu/all/bsp_cache.o
 .debug_info    0x00025826     0x148a ./rzt/fsp/src/bsp/mcu/all/bsp_clocks.o
 .debug_info    0x00026cb0      0x24f ./rzt/fsp/src/bsp/mcu/all/bsp_delay.o
 .debug_info    0x00026eff       0xb1 ./rzt/fsp/src/bsp/mcu/all/bsp_io.o
 .debug_info    0x00026fb0       0xa6 ./rzt/fsp/src/bsp/mcu/all/bsp_irq.o
 .debug_info    0x00027056      0x2c0 ./rzt/fsp/src/bsp/mcu/all/bsp_register_protection.o
 .debug_info    0x00027316     0x128d ./rzt/fsp/src/bsp/mcu/all/bsp_reset.o
 .debug_info    0x000285a3      0x14b ./rzt/fsp/src/bsp/mcu/all/bsp_sbrk.o
 .debug_info    0x000286ee      0x23a ./rzt/fsp/src/bsp/mcu/all/bsp_semaphore.o
 .debug_info    0x00028928      0x232 ./rzt/fsp/src/bsp/cmsis/Device/RENESAS/Source/cr/startup_core.o
 .debug_info    0x00028b5a      0x99c ./rzt/fsp/src/bsp/cmsis/Device/RENESAS/Source/cr/system_core.o
 .debug_info    0x000294f6      0x22e ./rzt/fsp/src/bsp/cmsis/Device/RENESAS/Source/startup.o
 .debug_info    0x00029724     0x184a ./rzt/fsp/src/bsp/cmsis/Device/RENESAS/Source/system.o
 .debug_info    0x0002af6e     0x1319 ./coremark/core_list_join.o
 .debug_info    0x0002c287      0xced ./coremark/core_main.o
 .debug_info    0x0002cf74      0xd36 ./coremark/core_matrix.o
 .debug_info    0x0002dcaa      0x2b9 ./coremark/core_portme.o
 .debug_info    0x0002df63      0x589 ./coremark/core_state.o
 .debug_info    0x0002e4ec      0x6b7 ./coremark/core_util.o

.debug_abbrev   0x00000000     0x4a6f
 .debug_abbrev  0x00000000      0x4a7 ./src/hal_entry.o
 .debug_abbrev  0x000004a7      0x1fc ./src/syscall.o
 .debug_abbrev  0x000006a3      0x140 ./rzt_gen/common_data.o
 .debug_abbrev  0x000007e3      0x2bd ./rzt_gen/hal_data.o
 .debug_abbrev  0x00000aa0       0x64 ./rzt_gen/main.o
 .debug_abbrev  0x00000b04      0x109 ./rzt_gen/pin_data.o
 .debug_abbrev  0x00000c0d       0x84 ./rzt_gen/vector_data.o
 .debug_abbrev  0x00000c91      0x3de ./rzt/fsp/src/r_shared_memory/r_shared_memory.o
 .debug_abbrev  0x0000106f      0x67d ./rzt/fsp/src/r_sci_uart/r_sci_uart.o
 .debug_abbrev  0x000016ec      0x4b1 ./rzt/fsp/src/r_ioport/r_ioport.o
 .debug_abbrev  0x00001b9d      0x471 ./rzt/fsp/src/r_icu_inter_cpu_irq/r_icu_inter_cpu_irq.o
 .debug_abbrev  0x0000200e      0x5ce ./rzt/fsp/src/r_gpt/r_gpt.o
 .debug_abbrev  0x000025dc       0x61 ./rzt/fsp/src/bsp/mcu/rzt2m/bsp_irq_sense.o
 .debug_abbrev  0x0000263d       0x61 ./rzt/fsp/src/bsp/mcu/rzt2m/bsp_loader_param.o
 .debug_abbrev  0x0000269e       0x64 ./rzt/fsp/src/bsp/mcu/all/cr/bsp_delay_core.o
 .debug_abbrev  0x00002702      0x1db ./rzt/fsp/src/bsp/mcu/all/cr/bsp_irq_core.o
 .debug_abbrev  0x000028dd      0x251 ./rzt/fsp/src/bsp/mcu/all/bsp_cache.o
 .debug_abbrev  0x00002b2e      0x252 ./rzt/fsp/src/bsp/mcu/all/bsp_clocks.o
 .debug_abbrev  0x00002d80      0x181 ./rzt/fsp/src/bsp/mcu/all/bsp_delay.o
 .debug_abbrev  0x00002f01       0x5e ./rzt/fsp/src/bsp/mcu/all/bsp_io.o
 .debug_abbrev  0x00002f5f       0x65 ./rzt/fsp/src/bsp/mcu/all/bsp_irq.o
 .debug_abbrev  0x00002fc4      0x13e ./rzt/fsp/src/bsp/mcu/all/bsp_register_protection.o
 .debug_abbrev  0x00003102      0x23c ./rzt/fsp/src/bsp/mcu/all/bsp_reset.o
 .debug_abbrev  0x0000333e       0xcc ./rzt/fsp/src/bsp/mcu/all/bsp_sbrk.o
 .debug_abbrev  0x0000340a      0x155 ./rzt/fsp/src/bsp/mcu/all/bsp_semaphore.o
 .debug_abbrev  0x0000355f       0xe7 ./rzt/fsp/src/bsp/cmsis/Device/RENESAS/Source/cr/startup_core.o
 .debug_abbrev  0x00003646      0x263 ./rzt/fsp/src/bsp/cmsis/Device/RENESAS/Source/cr/system_core.o
 .debug_abbrev  0x000038a9      0x109 ./rzt/fsp/src/bsp/cmsis/Device/RENESAS/Source/startup.o
 .debug_abbrev  0x000039b2      0x376 ./rzt/fsp/src/bsp/cmsis/Device/RENESAS/Source/system.o
 .debug_abbrev  0x00003d28      0x34e ./coremark/core_list_join.o
 .debug_abbrev  0x00004076      0x265 ./coremark/core_main.o
 .debug_abbrev  0x000042db      0x235 ./coremark/core_matrix.o
 .debug_abbrev  0x00004510      0x167 ./coremark/core_portme.o
 .debug_abbrev  0x00004677      0x24e ./coremark/core_state.o
 .debug_abbrev  0x000048c5      0x1aa ./coremark/core_util.o

.debug_loc      0x00000000    0x11712
 .debug_loc     0x00000000      0x29b ./src/hal_entry.o
 .debug_loc     0x0000029b      0x433 ./src/syscall.o
 .debug_loc     0x000006ce      0x5be ./rzt/fsp/src/r_shared_memory/r_shared_memory.o
 .debug_loc     0x00000c8c     0x30d4 ./rzt/fsp/src/r_sci_uart/r_sci_uart.o
 .debug_loc     0x00003d60     0x1d38 ./rzt/fsp/src/r_ioport/r_ioport.o
 .debug_loc     0x00005a98      0x808 ./rzt/fsp/src/r_icu_inter_cpu_irq/r_icu_inter_cpu_irq.o
 .debug_loc     0x000062a0     0x1ac9 ./rzt/fsp/src/r_gpt/r_gpt.o
 .debug_loc     0x00007d69      0x193 ./rzt/fsp/src/bsp/mcu/all/cr/bsp_irq_core.o
 .debug_loc     0x00007efc      0xfc9 ./rzt/fsp/src/bsp/mcu/all/bsp_cache.o
 .debug_loc     0x00008ec5      0x27a ./rzt/fsp/src/bsp/mcu/all/bsp_clocks.o
 .debug_loc     0x0000913f      0x2f4 ./rzt/fsp/src/bsp/mcu/all/bsp_delay.o
 .debug_loc     0x00009433      0x1e5 ./rzt/fsp/src/bsp/mcu/all/bsp_reset.o
 .debug_loc     0x00009618       0xd6 ./rzt/fsp/src/bsp/mcu/all/bsp_sbrk.o
 .debug_loc     0x000096ee       0x86 ./rzt/fsp/src/bsp/mcu/all/bsp_semaphore.o
 .debug_loc     0x00009774      0x36a ./rzt/fsp/src/bsp/cmsis/Device/RENESAS/Source/cr/system_core.o
 .debug_loc     0x00009ade      0x49e ./rzt/fsp/src/bsp/cmsis/Device/RENESAS/Source/system.o
 .debug_loc     0x00009f7c     0x220d ./coremark/core_list_join.o
 .debug_loc     0x0000c189      0xcc1 ./coremark/core_main.o
 .debug_loc     0x0000ce4a     0x1fca ./coremark/core_matrix.o
 .debug_loc     0x0000ee14       0x50 ./coremark/core_portme.o
 .debug_loc     0x0000ee64      0xb60 ./coremark/core_state.o
 .debug_loc     0x0000f9c4     0x1d4e ./coremark/core_util.o

.debug_aranges  0x00000000      0x918
 .debug_aranges
                0x00000000       0x40 ./src/hal_entry.o
 .debug_aranges
                0x00000040       0xa8 ./src/syscall.o
 .debug_aranges
                0x000000e8       0x20 ./rzt_gen/common_data.o
 .debug_aranges
                0x00000108       0x20 ./rzt_gen/hal_data.o
 .debug_aranges
                0x00000128       0x20 ./rzt_gen/main.o
 .debug_aranges
                0x00000148       0x18 ./rzt_gen/pin_data.o
 .debug_aranges
                0x00000160       0x18 ./rzt_gen/vector_data.o
 .debug_aranges
                0x00000178       0x50 ./rzt/fsp/src/r_shared_memory/r_shared_memory.o
 .debug_aranges
                0x000001c8       0xa0 ./rzt/fsp/src/r_sci_uart/r_sci_uart.o
 .debug_aranges
                0x00000268       0x90 ./rzt/fsp/src/r_ioport/r_ioport.o
 .debug_aranges
                0x000002f8       0x40 ./rzt/fsp/src/r_icu_inter_cpu_irq/r_icu_inter_cpu_irq.o
 .debug_aranges
                0x00000338       0xc0 ./rzt/fsp/src/r_gpt/r_gpt.o
 .debug_aranges
                0x000003f8       0x18 ./rzt/fsp/src/bsp/mcu/rzt2m/bsp_irq_sense.o
 .debug_aranges
                0x00000410       0x18 ./rzt/fsp/src/bsp/mcu/rzt2m/bsp_loader_param.o
 .debug_aranges
                0x00000428       0x20 ./rzt/fsp/src/bsp/mcu/all/cr/bsp_delay_core.o
 .debug_aranges
                0x00000448       0x28 ./rzt/fsp/src/bsp/mcu/all/cr/bsp_irq_core.o
 .debug_aranges
                0x00000470       0x80 ./rzt/fsp/src/bsp/mcu/all/bsp_cache.o
 .debug_aranges
                0x000004f0       0x30 ./rzt/fsp/src/bsp/mcu/all/bsp_clocks.o
 .debug_aranges
                0x00000520       0x28 ./rzt/fsp/src/bsp/mcu/all/bsp_delay.o
 .debug_aranges
                0x00000548       0x18 ./rzt/fsp/src/bsp/mcu/all/bsp_io.o
 .debug_aranges
                0x00000560       0x20 ./rzt/fsp/src/bsp/mcu/all/bsp_irq.o
 .debug_aranges
                0x00000580       0x28 ./rzt/fsp/src/bsp/mcu/all/bsp_register_protection.o
 .debug_aranges
                0x000005a8       0x48 ./rzt/fsp/src/bsp/mcu/all/bsp_reset.o
 .debug_aranges
                0x000005f0       0x20 ./rzt/fsp/src/bsp/mcu/all/bsp_sbrk.o
 .debug_aranges
                0x00000610       0x20 ./rzt/fsp/src/bsp/mcu/all/bsp_semaphore.o
 .debug_aranges
                0x00000630       0x50 ./rzt/fsp/src/bsp/cmsis/Device/RENESAS/Source/cr/startup_core.o
 .debug_aranges
                0x00000680       0x40 ./rzt/fsp/src/bsp/cmsis/Device/RENESAS/Source/cr/system_core.o
 .debug_aranges
                0x000006c0       0x20 ./rzt/fsp/src/bsp/cmsis/Device/RENESAS/Source/startup.o
 .debug_aranges
                0x000006e0       0x78 ./rzt/fsp/src/bsp/cmsis/Device/RENESAS/Source/system.o
 .debug_aranges
                0x00000758       0x78 ./coremark/core_list_join.o
 .debug_aranges
                0x000007d0       0x28 ./coremark/core_main.o
 .debug_aranges
                0x000007f8       0x60 ./coremark/core_matrix.o
 .debug_aranges
                0x00000858       0x48 ./coremark/core_portme.o
 .debug_aranges
                0x000008a0       0x30 ./coremark/core_state.o
 .debug_aranges
                0x000008d0       0x48 ./coremark/core_util.o

.debug_ranges   0x00000000     0x25f0
 .debug_ranges  0x00000000       0x88 ./src/hal_entry.o
 .debug_ranges  0x00000088       0xb0 ./src/syscall.o
 .debug_ranges  0x00000138       0x10 ./rzt_gen/common_data.o
 .debug_ranges  0x00000148       0x10 ./rzt_gen/hal_data.o
 .debug_ranges  0x00000158       0x10 ./rzt_gen/main.o
 .debug_ranges  0x00000168       0xf8 ./rzt/fsp/src/r_shared_memory/r_shared_memory.o
 .debug_ranges  0x00000260      0xac8 ./rzt/fsp/src/r_sci_uart/r_sci_uart.o
 .debug_ranges  0x00000d28      0x358 ./rzt/fsp/src/r_ioport/r_ioport.o
 .debug_ranges  0x00001080      0x1d0 ./rzt/fsp/src/r_icu_inter_cpu_irq/r_icu_inter_cpu_irq.o
 .debug_ranges  0x00001250      0x558 ./rzt/fsp/src/r_gpt/r_gpt.o
 .debug_ranges  0x000017a8       0x10 ./rzt/fsp/src/bsp/mcu/all/cr/bsp_delay_core.o
 .debug_ranges  0x000017b8       0x18 ./rzt/fsp/src/bsp/mcu/all/cr/bsp_irq_core.o
 .debug_ranges  0x000017d0      0x1f0 ./rzt/fsp/src/bsp/mcu/all/bsp_cache.o
 .debug_ranges  0x000019c0       0xd0 ./rzt/fsp/src/bsp/mcu/all/bsp_clocks.o
 .debug_ranges  0x00001a90       0x40 ./rzt/fsp/src/bsp/mcu/all/bsp_delay.o
 .debug_ranges  0x00001ad0       0x10 ./rzt/fsp/src/bsp/mcu/all/bsp_irq.o
 .debug_ranges  0x00001ae0       0x18 ./rzt/fsp/src/bsp/mcu/all/bsp_register_protection.o
 .debug_ranges  0x00001af8       0x38 ./rzt/fsp/src/bsp/mcu/all/bsp_reset.o
 .debug_ranges  0x00001b30       0x10 ./rzt/fsp/src/bsp/mcu/all/bsp_sbrk.o
 .debug_ranges  0x00001b40       0x10 ./rzt/fsp/src/bsp/mcu/all/bsp_semaphore.o
 .debug_ranges  0x00001b50       0x40 ./rzt/fsp/src/bsp/cmsis/Device/RENESAS/Source/cr/startup_core.o
 .debug_ranges  0x00001b90       0xa8 ./rzt/fsp/src/bsp/cmsis/Device/RENESAS/Source/cr/system_core.o
 .debug_ranges  0x00001c38       0x10 ./rzt/fsp/src/bsp/cmsis/Device/RENESAS/Source/startup.o
 .debug_ranges  0x00001c48       0x80 ./rzt/fsp/src/bsp/cmsis/Device/RENESAS/Source/system.o
 .debug_ranges  0x00001cc8      0x308 ./coremark/core_list_join.o
 .debug_ranges  0x00001fd0       0xc8 ./coremark/core_main.o
 .debug_ranges  0x00002098      0x2b8 ./coremark/core_matrix.o
 .debug_ranges  0x00002350       0x38 ./coremark/core_portme.o
 .debug_ranges  0x00002388       0xe8 ./coremark/core_state.o
 .debug_ranges  0x00002470      0x180 ./coremark/core_util.o

.debug_line     0x00000000    0x10141
 .debug_line    0x00000000      0x729 ./src/hal_entry.o
 .debug_line    0x00000729      0x47b ./src/syscall.o
 .debug_line    0x00000ba4      0x2bd ./rzt_gen/common_data.o
 .debug_line    0x00000e61      0x411 ./rzt_gen/hal_data.o
 .debug_line    0x00001272       0x5f ./rzt_gen/main.o
 .debug_line    0x000012d1      0x253 ./rzt_gen/pin_data.o
 .debug_line    0x00001524       0xc6 ./rzt_gen/vector_data.o
 .debug_line    0x000015ea      0x8af ./rzt/fsp/src/r_shared_memory/r_shared_memory.o
 .debug_line    0x00001e99     0x23d7 ./rzt/fsp/src/r_sci_uart/r_sci_uart.o
 .debug_line    0x00004270     0x1852 ./rzt/fsp/src/r_ioport/r_ioport.o
 .debug_line    0x00005ac2      0x962 ./rzt/fsp/src/r_icu_inter_cpu_irq/r_icu_inter_cpu_irq.o
 .debug_line    0x00006424     0x176c ./rzt/fsp/src/r_gpt/r_gpt.o
 .debug_line    0x00007b90      0x128 ./rzt/fsp/src/bsp/mcu/rzt2m/bsp_irq_sense.o
 .debug_line    0x00007cb8      0x12b ./rzt/fsp/src/bsp/mcu/rzt2m/bsp_loader_param.o
 .debug_line    0x00007de3      0x142 ./rzt/fsp/src/bsp/mcu/all/cr/bsp_delay_core.o
 .debug_line    0x00007f25      0x5b7 ./rzt/fsp/src/bsp/mcu/all/cr/bsp_irq_core.o
 .debug_line    0x000084dc      0xc74 ./rzt/fsp/src/bsp/mcu/all/bsp_cache.o
 .debug_line    0x00009150      0x86f ./rzt/fsp/src/bsp/mcu/all/bsp_clocks.o
 .debug_line    0x000099bf      0x31d ./rzt/fsp/src/bsp/mcu/all/bsp_delay.o
 .debug_line    0x00009cdc      0x16e ./rzt/fsp/src/bsp/mcu/all/bsp_io.o
 .debug_line    0x00009e4a       0xb2 ./rzt/fsp/src/bsp/mcu/all/bsp_irq.o
 .debug_line    0x00009efc      0x2cb ./rzt/fsp/src/bsp/mcu/all/bsp_register_protection.o
 .debug_line    0x0000a1c7      0x448 ./rzt/fsp/src/bsp/mcu/all/bsp_reset.o
 .debug_line    0x0000a60f      0x1b8 ./rzt/fsp/src/bsp/mcu/all/bsp_sbrk.o
 .debug_line    0x0000a7c7      0x2ee ./rzt/fsp/src/bsp/mcu/all/bsp_semaphore.o
 .debug_line    0x0000aab5      0x206 ./rzt/fsp/src/bsp/cmsis/Device/RENESAS/Source/cr/startup_core.o
 .debug_line    0x0000acbb      0x62a ./rzt/fsp/src/bsp/cmsis/Device/RENESAS/Source/cr/system_core.o
 .debug_line    0x0000b2e5      0x256 ./rzt/fsp/src/bsp/cmsis/Device/RENESAS/Source/startup.o
 .debug_line    0x0000b53b      0x7b0 ./rzt/fsp/src/bsp/cmsis/Device/RENESAS/Source/system.o
 .debug_line    0x0000bceb     0x1040 ./coremark/core_list_join.o
 .debug_line    0x0000cd2b      0xae7 ./coremark/core_main.o
 .debug_line    0x0000d812     0x148c ./coremark/core_matrix.o
 .debug_line    0x0000ec9e      0x1df ./coremark/core_portme.o
 .debug_line    0x0000ee7d      0x8a5 ./coremark/core_state.o
 .debug_line    0x0000f722      0xa1f ./coremark/core_util.o

.debug_str      0x00000000    0x15d23
 .debug_str     0x00000000    0x15d23 ./src/hal_entry.o
                               0x54c3 (size before relaxing)
 .debug_str     0x00015d23      0x436 ./src/syscall.o
 .debug_str     0x00015d23     0x3cdd ./rzt_gen/common_data.o
 .debug_str     0x00015d23     0x6ce6 ./rzt_gen/hal_data.o
 .debug_str     0x00015d23      0x1f4 ./rzt_gen/main.o
 .debug_str     0x00015d23     0x95e9 ./rzt_gen/pin_data.o
 .debug_str     0x00015d23      0x277 ./rzt_gen/vector_data.o
 .debug_str     0x00015d23     0x2388 ./rzt/fsp/src/r_shared_memory/r_shared_memory.o
 .debug_str     0x00015d23     0x5977 ./rzt/fsp/src/r_sci_uart/r_sci_uart.o
 .debug_str     0x00015d23     0x4249 ./rzt/fsp/src/r_ioport/r_ioport.o
 .debug_str     0x00015d23     0x2cf1 ./rzt/fsp/src/r_icu_inter_cpu_irq/r_icu_inter_cpu_irq.o
 .debug_str     0x00015d23     0x50a5 ./rzt/fsp/src/r_gpt/r_gpt.o
 .debug_str     0x00015d23      0x23e ./rzt/fsp/src/bsp/mcu/rzt2m/bsp_irq_sense.o
 .debug_str     0x00015d23      0x224 ./rzt/fsp/src/bsp/mcu/rzt2m/bsp_loader_param.o
 .debug_str     0x00015d23      0x233 ./rzt/fsp/src/bsp/mcu/all/cr/bsp_delay_core.o
 .debug_str     0x00015d23     0x2ce9 ./rzt/fsp/src/bsp/mcu/all/cr/bsp_irq_core.o
 .debug_str     0x00015d23      0x5bc ./rzt/fsp/src/bsp/mcu/all/bsp_cache.o
 .debug_str     0x00015d23      0x948 ./rzt/fsp/src/bsp/mcu/all/bsp_clocks.o
 .debug_str     0x00015d23      0x347 ./rzt/fsp/src/bsp/mcu/all/bsp_delay.o
 .debug_str     0x00015d23      0x21c ./rzt/fsp/src/bsp/mcu/all/bsp_io.o
 .debug_str     0x00015d23      0x20f ./rzt/fsp/src/bsp/mcu/all/bsp_irq.o
 .debug_str     0x00015d23      0x374 ./rzt/fsp/src/bsp/mcu/all/bsp_register_protection.o
 .debug_str     0x00015d23      0xdd2 ./rzt/fsp/src/bsp/mcu/all/bsp_reset.o
 .debug_str     0x00015d23      0x27e ./rzt/fsp/src/bsp/mcu/all/bsp_sbrk.o
 .debug_str     0x00015d23      0x326 ./rzt/fsp/src/bsp/mcu/all/bsp_semaphore.o
 .debug_str     0x00015d23      0x35a ./rzt/fsp/src/bsp/cmsis/Device/RENESAS/Source/cr/startup_core.o
 .debug_str     0x00015d23      0x4c0 ./rzt/fsp/src/bsp/cmsis/Device/RENESAS/Source/cr/system_core.o
 .debug_str     0x00015d23      0x3cb ./rzt/fsp/src/bsp/cmsis/Device/RENESAS/Source/startup.o
 .debug_str     0x00015d23      0xeb1 ./rzt/fsp/src/bsp/cmsis/Device/RENESAS/Source/system.o
 .debug_str     0x00015d23      0x4f5 ./coremark/core_list_join.o
 .debug_str     0x00015d23      0x4dd ./coremark/core_main.o
 .debug_str     0x00015d23      0x2f6 ./coremark/core_matrix.o
 .debug_str     0x00015d23      0x331 ./coremark/core_portme.o
 .debug_str     0x00015d23      0x377 ./coremark/core_state.o
 .debug_str     0x00015d23      0x29c ./coremark/core_util.o

.comment        0x00000000       0x44
 .comment       0x00000000       0x44 ./src/hal_entry.o
                                 0x45 (size before relaxing)
 .comment       0x00000044       0x45 ./src/syscall.o
 .comment       0x00000044       0x45 ./rzt_gen/common_data.o
 .comment       0x00000044       0x45 ./rzt_gen/hal_data.o
 .comment       0x00000044       0x45 ./rzt_gen/main.o
 .comment       0x00000044       0x45 ./rzt_gen/pin_data.o
 .comment       0x00000044       0x45 ./rzt_gen/vector_data.o
 .comment       0x00000044       0x45 ./rzt/fsp/src/r_shared_memory/r_shared_memory.o
 .comment       0x00000044       0x45 ./rzt/fsp/src/r_sci_uart/r_sci_uart.o
 .comment       0x00000044       0x45 ./rzt/fsp/src/r_ioport/r_ioport.o
 .comment       0x00000044       0x45 ./rzt/fsp/src/r_icu_inter_cpu_irq/r_icu_inter_cpu_irq.o
 .comment       0x00000044       0x45 ./rzt/fsp/src/r_gpt/r_gpt.o
 .comment       0x00000044       0x45 ./rzt/fsp/src/bsp/mcu/rzt2m/bsp_irq_sense.o
 .comment       0x00000044       0x45 ./rzt/fsp/src/bsp/mcu/rzt2m/bsp_loader_param.o
 .comment       0x00000044       0x45 ./rzt/fsp/src/bsp/mcu/all/cr/bsp_delay_core.o
 .comment       0x00000044       0x45 ./rzt/fsp/src/bsp/mcu/all/cr/bsp_irq_core.o
 .comment       0x00000044       0x45 ./rzt/fsp/src/bsp/mcu/all/bsp_cache.o
 .comment       0x00000044       0x45 ./rzt/fsp/src/bsp/mcu/all/bsp_clocks.o
 .comment       0x00000044       0x45 ./rzt/fsp/src/bsp/mcu/all/bsp_delay.o
 .comment       0x00000044       0x45 ./rzt/fsp/src/bsp/mcu/all/bsp_io.o
 .comment       0x00000044       0x45 ./rzt/fsp/src/bsp/mcu/all/bsp_irq.o
 .comment       0x00000044       0x45 ./rzt/fsp/src/bsp/mcu/all/bsp_register_protection.o
 .comment       0x00000044       0x45 ./rzt/fsp/src/bsp/mcu/all/bsp_reset.o
 .comment       0x00000044       0x45 ./rzt/fsp/src/bsp/mcu/all/bsp_sbrk.o
 .comment       0x00000044       0x45 ./rzt/fsp/src/bsp/mcu/all/bsp_semaphore.o
 .comment       0x00000044       0x45 ./rzt/fsp/src/bsp/cmsis/Device/RENESAS/Source/cr/startup_core.o
 .comment       0x00000044       0x45 ./rzt/fsp/src/bsp/cmsis/Device/RENESAS/Source/cr/system_core.o
 .comment       0x00000044       0x45 ./rzt/fsp/src/bsp/cmsis/Device/RENESAS/Source/startup.o
 .comment       0x00000044       0x45 ./rzt/fsp/src/bsp/cmsis/Device/RENESAS/Source/system.o
 .comment       0x00000044       0x45 ./coremark/core_list_join.o
 .comment       0x00000044       0x45 ./coremark/core_main.o
 .comment       0x00000044       0x45 ./coremark/core_matrix.o
 .comment       0x00000044       0x45 ./coremark/core_portme.o
 .comment       0x00000044       0x45 ./coremark/core_state.o
 .comment       0x00000044       0x45 ./coremark/core_util.o

.ARM.attributes
                0x00000000       0x37
 .ARM.attributes
                0x00000000       0x35 ./src/hal_entry.o
 .ARM.attributes
                0x00000035       0x35 ./src/syscall.o
 .ARM.attributes
                0x0000006a       0x35 ./rzt_gen/common_data.o
 .ARM.attributes
                0x0000009f       0x35 ./rzt_gen/hal_data.o
 .ARM.attributes
                0x000000d4       0x35 ./rzt_gen/main.o
 .ARM.attributes
                0x00000109       0x35 ./rzt_gen/pin_data.o
 .ARM.attributes
                0x0000013e       0x35 ./rzt_gen/vector_data.o
 .ARM.attributes
                0x00000173       0x35 ./rzt/fsp/src/r_shared_memory/r_shared_memory.o
 .ARM.attributes
                0x000001a8       0x35 ./rzt/fsp/src/r_sci_uart/r_sci_uart.o
 .ARM.attributes
                0x000001dd       0x35 ./rzt/fsp/src/r_ioport/r_ioport.o
 .ARM.attributes
                0x00000212       0x35 ./rzt/fsp/src/r_icu_inter_cpu_irq/r_icu_inter_cpu_irq.o
 .ARM.attributes
                0x00000247       0x35 ./rzt/fsp/src/r_gpt/r_gpt.o
 .ARM.attributes
                0x0000027c       0x35 ./rzt/fsp/src/bsp/mcu/rzt2m/bsp_irq_sense.o
 .ARM.attributes
                0x000002b1       0x35 ./rzt/fsp/src/bsp/mcu/rzt2m/bsp_loader_param.o
 .ARM.attributes
                0x000002e6       0x35 ./rzt/fsp/src/bsp/mcu/all/cr/bsp_delay_core.o
 .ARM.attributes
                0x0000031b       0x35 ./rzt/fsp/src/bsp/mcu/all/cr/bsp_irq_core.o
 .ARM.attributes
                0x00000350       0x35 ./rzt/fsp/src/bsp/mcu/all/bsp_cache.o
 .ARM.attributes
                0x00000385       0x35 ./rzt/fsp/src/bsp/mcu/all/bsp_clocks.o
 .ARM.attributes
                0x000003ba       0x35 ./rzt/fsp/src/bsp/mcu/all/bsp_delay.o
 .ARM.attributes
                0x000003ef       0x35 ./rzt/fsp/src/bsp/mcu/all/bsp_io.o
 .ARM.attributes
                0x00000424       0x35 ./rzt/fsp/src/bsp/mcu/all/bsp_irq.o
 .ARM.attributes
                0x00000459       0x35 ./rzt/fsp/src/bsp/mcu/all/bsp_register_protection.o
 .ARM.attributes
                0x0000048e       0x35 ./rzt/fsp/src/bsp/mcu/all/bsp_reset.o
 .ARM.attributes
                0x000004c3       0x35 ./rzt/fsp/src/bsp/mcu/all/bsp_sbrk.o
 .ARM.attributes
                0x000004f8       0x35 ./rzt/fsp/src/bsp/mcu/all/bsp_semaphore.o
 .ARM.attributes
                0x0000052d       0x35 ./rzt/fsp/src/bsp/cmsis/Device/RENESAS/Source/cr/startup_core.o
 .ARM.attributes
                0x00000562       0x35 ./rzt/fsp/src/bsp/cmsis/Device/RENESAS/Source/cr/system_core.o
 .ARM.attributes
                0x00000597       0x35 ./rzt/fsp/src/bsp/cmsis/Device/RENESAS/Source/startup.o
 .ARM.attributes
                0x000005cc       0x35 ./rzt/fsp/src/bsp/cmsis/Device/RENESAS/Source/system.o
 .ARM.attributes
                0x00000601       0x35 ./coremark/core_list_join.o
 .ARM.attributes
                0x00000636       0x35 ./coremark/core_main.o
 .ARM.attributes
                0x0000066b       0x35 ./coremark/core_matrix.o
 .ARM.attributes
                0x000006a0       0x35 ./coremark/core_portme.o
 .ARM.attributes
                0x000006d5       0x35 ./coremark/core_state.o
 .ARM.attributes
                0x0000070a       0x35 ./coremark/core_util.o
 .ARM.attributes
                0x0000073f       0x1b C:/Program Files (x86)/Arm GNU Toolchain arm-none-eabi/13.2 Rel1/bin/../lib/gcc/arm-none-eabi/13.2.1/thumb/v7+fp/hard\libgcc.a(_aeabi_uldivmod.o)
 .ARM.attributes
                0x0000075a       0x2d C:/Program Files (x86)/Arm GNU Toolchain arm-none-eabi/13.2 Rel1/bin/../lib/gcc/arm-none-eabi/13.2.1/thumb/v7+fp/hard\libgcc.a(_udivmoddi4.o)
 .ARM.attributes
                0x00000787       0x1b C:/Program Files (x86)/Arm GNU Toolchain arm-none-eabi/13.2 Rel1/bin/../lib/gcc/arm-none-eabi/13.2.1/thumb/v7+fp/hard\libgcc.a(_dvmd_tls.o)
 .ARM.attributes
                0x000007a2       0x2d C:/Program Files (x86)/Arm GNU Toolchain arm-none-eabi/13.2 Rel1/bin/../lib/gcc/arm-none-eabi/13.2.1/thumb/v7+fp/hard\libg_nano.a(libc_a-assert.o)
 .ARM.attributes
                0x000007cf       0x2d C:/Program Files (x86)/Arm GNU Toolchain arm-none-eabi/13.2 Rel1/bin/../lib/gcc/arm-none-eabi/13.2.1/thumb/v7+fp/hard\libg_nano.a(libc_a-malloc.o)
 .ARM.attributes
                0x000007fc       0x2d C:/Program Files (x86)/Arm GNU Toolchain arm-none-eabi/13.2 Rel1/bin/../lib/gcc/arm-none-eabi/13.2.1/thumb/v7+fp/hard\libg_nano.a(libc_a-mallocr.o)
 .ARM.attributes
                0x00000829       0x2d C:/Program Files (x86)/Arm GNU Toolchain arm-none-eabi/13.2 Rel1/bin/../lib/gcc/arm-none-eabi/13.2.1/thumb/v7+fp/hard\libg_nano.a(libc_a-mlock.o)
 .ARM.attributes
                0x00000856       0x2d C:/Program Files (x86)/Arm GNU Toolchain arm-none-eabi/13.2 Rel1/bin/../lib/gcc/arm-none-eabi/13.2.1/thumb/v7+fp/hard\libg_nano.a(libc_a-nano-vfprintf_float.o)
 .ARM.attributes
                0x00000883       0x2d C:/Program Files (x86)/Arm GNU Toolchain arm-none-eabi/13.2 Rel1/bin/../lib/gcc/arm-none-eabi/13.2.1/thumb/v7+fp/hard\libg_nano.a(libc_a-nano-vfprintf_i.o)
 .ARM.attributes
                0x000008b0       0x2d C:/Program Files (x86)/Arm GNU Toolchain arm-none-eabi/13.2 Rel1/bin/../lib/gcc/arm-none-eabi/13.2.1/thumb/v7+fp/hard\libg_nano.a(libc_a-nano-vfscanf_float.o)
 .ARM.attributes
                0x000008dd       0x2d C:/Program Files (x86)/Arm GNU Toolchain arm-none-eabi/13.2 Rel1/bin/../lib/gcc/arm-none-eabi/13.2.1/thumb/v7+fp/hard\libg_nano.a(libc_a-fprintf.o)
 .ARM.attributes
                0x0000090a       0x2d C:/Program Files (x86)/Arm GNU Toolchain arm-none-eabi/13.2 Rel1/bin/../lib/gcc/arm-none-eabi/13.2.1/thumb/v7+fp/hard\libg_nano.a(libc_a-printf.o)
 .ARM.attributes
                0x00000937       0x2d C:/Program Files (x86)/Arm GNU Toolchain arm-none-eabi/13.2 Rel1/bin/../lib/gcc/arm-none-eabi/13.2.1/thumb/v7+fp/hard\libg_nano.a(libc_a-putchar.o)
 .ARM.attributes
                0x00000964       0x2d C:/Program Files (x86)/Arm GNU Toolchain arm-none-eabi/13.2 Rel1/bin/../lib/gcc/arm-none-eabi/13.2.1/thumb/v7+fp/hard\libg_nano.a(libc_a-puts.o)
 .ARM.attributes
                0x00000991       0x2d C:/Program Files (x86)/Arm GNU Toolchain arm-none-eabi/13.2 Rel1/bin/../lib/gcc/arm-none-eabi/13.2.1/thumb/v7+fp/hard\libg_nano.a(libc_a-sprintf.o)
 .ARM.attributes
                0x000009be       0x2d C:/Program Files (x86)/Arm GNU Toolchain arm-none-eabi/13.2 Rel1/bin/../lib/gcc/arm-none-eabi/13.2.1/thumb/v7+fp/hard\libg_nano.a(libc_a-wbuf.o)
 .ARM.attributes
                0x000009eb       0x2d C:/Program Files (x86)/Arm GNU Toolchain arm-none-eabi/13.2 Rel1/bin/../lib/gcc/arm-none-eabi/13.2.1/thumb/v7+fp/hard\libg_nano.a(libc_a-wsetup.o)
 .ARM.attributes
                0x00000a18       0x2d C:/Program Files (x86)/Arm GNU Toolchain arm-none-eabi/13.2 Rel1/bin/../lib/gcc/arm-none-eabi/13.2.1/thumb/v7+fp/hard\libg_nano.a(libc_a-memset.o)
 .ARM.attributes
                0x00000a45       0x2d C:/Program Files (x86)/Arm GNU Toolchain arm-none-eabi/13.2 Rel1/bin/../lib/gcc/arm-none-eabi/13.2.1/thumb/v7+fp/hard\libg_nano.a(libc_a-clock.o)
 .ARM.attributes
                0x00000a72       0x2d C:/Program Files (x86)/Arm GNU Toolchain arm-none-eabi/13.2 Rel1/bin/../lib/gcc/arm-none-eabi/13.2.1/thumb/v7+fp/hard\libg_nano.a(libc_a-localeconv.o)
 .ARM.attributes
                0x00000a9f       0x2d C:/Program Files (x86)/Arm GNU Toolchain arm-none-eabi/13.2 Rel1/bin/../lib/gcc/arm-none-eabi/13.2.1/thumb/v7+fp/hard\libg_nano.a(libc_a-impure.o)
 .ARM.attributes
                0x00000acc       0x2d C:/Program Files (x86)/Arm GNU Toolchain arm-none-eabi/13.2 Rel1/bin/../lib/gcc/arm-none-eabi/13.2.1/thumb/v7+fp/hard\libg_nano.a(libc_a-sbrkr.o)
 .ARM.attributes
                0x00000af9       0x2d C:/Program Files (x86)/Arm GNU Toolchain arm-none-eabi/13.2 Rel1/bin/../lib/gcc/arm-none-eabi/13.2.1/thumb/v7+fp/hard\libg_nano.a(libc_a-timesr.o)
 .ARM.attributes
                0x00000b26       0x2d C:/Program Files (x86)/Arm GNU Toolchain arm-none-eabi/13.2 Rel1/bin/../lib/gcc/arm-none-eabi/13.2.1/thumb/v7+fp/hard\libg_nano.a(libc_a-errno.o)
 .ARM.attributes
                0x00000b53       0x2d C:/Program Files (x86)/Arm GNU Toolchain arm-none-eabi/13.2 Rel1/bin/../lib/gcc/arm-none-eabi/13.2.1/thumb/v7+fp/hard\libg_nano.a(libc_a-lock.o)
 .ARM.attributes
                0x00000b80       0x2d C:/Program Files (x86)/Arm GNU Toolchain arm-none-eabi/13.2 Rel1/bin/../lib/gcc/arm-none-eabi/13.2.1/thumb/v7+fp/hard\libg_nano.a(libc_a-memchr-stub.o)
 .ARM.attributes
                0x00000bad       0x2d C:/Program Files (x86)/Arm GNU Toolchain arm-none-eabi/13.2 Rel1/bin/../lib/gcc/arm-none-eabi/13.2.1/thumb/v7+fp/hard\libg_nano.a(libc_a-memcpy-stub.o)
 .ARM.attributes
                0x00000bda       0x17 C:/Program Files (x86)/Arm GNU Toolchain arm-none-eabi/13.2 Rel1/bin/../lib/gcc/arm-none-eabi/13.2.1/thumb/v7+fp/hard\libg_nano.a(libc_a-strlen.o)
 .ARM.attributes
                0x00000bf1       0x2d C:/Program Files (x86)/Arm GNU Toolchain arm-none-eabi/13.2 Rel1/bin/../lib/gcc/arm-none-eabi/13.2.1/thumb/v7+fp/hard\libg_nano.a(libm_a-sf_nan.o)
 .ARM.attributes
                0x00000c1e       0x2d C:/Program Files (x86)/Arm GNU Toolchain arm-none-eabi/13.2 Rel1/bin/../lib/gcc/arm-none-eabi/13.2.1/thumb/v7+fp/hard\libg_nano.a(libc_a-abort.o)
 .ARM.attributes
                0x00000c4b       0x2d C:/Program Files (x86)/Arm GNU Toolchain arm-none-eabi/13.2 Rel1/bin/../lib/gcc/arm-none-eabi/13.2.1/thumb/v7+fp/hard\libg_nano.a(libc_a-dtoa.o)
 .ARM.attributes
                0x00000c78       0x2d C:/Program Files (x86)/Arm GNU Toolchain arm-none-eabi/13.2 Rel1/bin/../lib/gcc/arm-none-eabi/13.2.1/thumb/v7+fp/hard\libg_nano.a(libc_a-freer.o)
 .ARM.attributes
                0x00000ca5       0x2d C:/Program Files (x86)/Arm GNU Toolchain arm-none-eabi/13.2 Rel1/bin/../lib/gcc/arm-none-eabi/13.2.1/thumb/v7+fp/hard\libg_nano.a(libc_a-mprec.o)
 .ARM.attributes
                0x00000cd2       0x2d C:/Program Files (x86)/Arm GNU Toolchain arm-none-eabi/13.2 Rel1/bin/../lib/gcc/arm-none-eabi/13.2.1/thumb/v7+fp/hard\libg_nano.a(libc_a-strtod.o)
 .ARM.attributes
                0x00000cff       0x2d C:/Program Files (x86)/Arm GNU Toolchain arm-none-eabi/13.2 Rel1/bin/../lib/gcc/arm-none-eabi/13.2.1/thumb/v7+fp/hard\libg_nano.a(libc_a-strtol.o)
 .ARM.attributes
                0x00000d2c       0x2d C:/Program Files (x86)/Arm GNU Toolchain arm-none-eabi/13.2 Rel1/bin/../lib/gcc/arm-none-eabi/13.2.1/thumb/v7+fp/hard\libg_nano.a(libc_a-ctype_.o)
 .ARM.attributes
                0x00000d59       0x2d C:/Program Files (x86)/Arm GNU Toolchain arm-none-eabi/13.2 Rel1/bin/../lib/gcc/arm-none-eabi/13.2.1/thumb/v7+fp/hard\libg_nano.a(libc_a-nano-svfprintf.o)
 .ARM.attributes
                0x00000d86       0x2d C:/Program Files (x86)/Arm GNU Toolchain arm-none-eabi/13.2 Rel1/bin/../lib/gcc/arm-none-eabi/13.2.1/thumb/v7+fp/hard\libg_nano.a(libc_a-nano-vfprintf.o)
 .ARM.attributes
                0x00000db3       0x2d C:/Program Files (x86)/Arm GNU Toolchain arm-none-eabi/13.2 Rel1/bin/../lib/gcc/arm-none-eabi/13.2.1/thumb/v7+fp/hard\libg_nano.a(libc_a-fflush.o)
 .ARM.attributes
                0x00000de0       0x2d C:/Program Files (x86)/Arm GNU Toolchain arm-none-eabi/13.2 Rel1/bin/../lib/gcc/arm-none-eabi/13.2.1/thumb/v7+fp/hard\libg_nano.a(libc_a-findfp.o)
 .ARM.attributes
                0x00000e0d       0x2d C:/Program Files (x86)/Arm GNU Toolchain arm-none-eabi/13.2 Rel1/bin/../lib/gcc/arm-none-eabi/13.2.1/thumb/v7+fp/hard\libg_nano.a(libc_a-fwalk.o)
 .ARM.attributes
                0x00000e3a       0x2d C:/Program Files (x86)/Arm GNU Toolchain arm-none-eabi/13.2 Rel1/bin/../lib/gcc/arm-none-eabi/13.2.1/thumb/v7+fp/hard\libg_nano.a(libc_a-makebuf.o)
 .ARM.attributes
                0x00000e67       0x2d C:/Program Files (x86)/Arm GNU Toolchain arm-none-eabi/13.2 Rel1/bin/../lib/gcc/arm-none-eabi/13.2.1/thumb/v7+fp/hard\libg_nano.a(libc_a-putc.o)
 .ARM.attributes
                0x00000e94       0x2d C:/Program Files (x86)/Arm GNU Toolchain arm-none-eabi/13.2 Rel1/bin/../lib/gcc/arm-none-eabi/13.2.1/thumb/v7+fp/hard\libg_nano.a(libc_a-stdio.o)
 .ARM.attributes
                0x00000ec1       0x2d C:/Program Files (x86)/Arm GNU Toolchain arm-none-eabi/13.2 Rel1/bin/../lib/gcc/arm-none-eabi/13.2.1/thumb/v7+fp/hard\libg_nano.a(libc_a-memmove.o)
 .ARM.attributes
                0x00000eee       0x2d C:/Program Files (x86)/Arm GNU Toolchain arm-none-eabi/13.2 Rel1/bin/../lib/gcc/arm-none-eabi/13.2.1/thumb/v7+fp/hard\libg_nano.a(libc_a-strncmp.o)
 .ARM.attributes
                0x00000f1b       0x2d C:/Program Files (x86)/Arm GNU Toolchain arm-none-eabi/13.2 Rel1/bin/../lib/gcc/arm-none-eabi/13.2.1/thumb/v7+fp/hard\libg_nano.a(libc_a-signal.o)
 .ARM.attributes
                0x00000f48       0x2d C:/Program Files (x86)/Arm GNU Toolchain arm-none-eabi/13.2 Rel1/bin/../lib/gcc/arm-none-eabi/13.2.1/thumb/v7+fp/hard\libg_nano.a(libc_a-locale.o)
 .ARM.attributes
                0x00000f75       0x2d C:/Program Files (x86)/Arm GNU Toolchain arm-none-eabi/13.2 Rel1/bin/../lib/gcc/arm-none-eabi/13.2.1/thumb/v7+fp/hard\libg_nano.a(libc_a-closer.o)
 .ARM.attributes
                0x00000fa2       0x2d C:/Program Files (x86)/Arm GNU Toolchain arm-none-eabi/13.2 Rel1/bin/../lib/gcc/arm-none-eabi/13.2.1/thumb/v7+fp/hard\libg_nano.a(libc_a-reent.o)
 .ARM.attributes
                0x00000fcf       0x2d C:/Program Files (x86)/Arm GNU Toolchain arm-none-eabi/13.2 Rel1/bin/../lib/gcc/arm-none-eabi/13.2.1/thumb/v7+fp/hard\libg_nano.a(libc_a-fstatr.o)
 .ARM.attributes
                0x00000ffc       0x2d C:/Program Files (x86)/Arm GNU Toolchain arm-none-eabi/13.2 Rel1/bin/../lib/gcc/arm-none-eabi/13.2.1/thumb/v7+fp/hard\libg_nano.a(libc_a-isattyr.o)
 .ARM.attributes
                0x00001029       0x2d C:/Program Files (x86)/Arm GNU Toolchain arm-none-eabi/13.2 Rel1/bin/../lib/gcc/arm-none-eabi/13.2.1/thumb/v7+fp/hard\libg_nano.a(libc_a-lseekr.o)
 .ARM.attributes
                0x00001056       0x2d C:/Program Files (x86)/Arm GNU Toolchain arm-none-eabi/13.2 Rel1/bin/../lib/gcc/arm-none-eabi/13.2.1/thumb/v7+fp/hard\libg_nano.a(libc_a-readr.o)
 .ARM.attributes
                0x00001083       0x2d C:/Program Files (x86)/Arm GNU Toolchain arm-none-eabi/13.2 Rel1/bin/../lib/gcc/arm-none-eabi/13.2.1/thumb/v7+fp/hard\libg_nano.a(libc_a-signalr.o)
 .ARM.attributes
                0x000010b0       0x2d C:/Program Files (x86)/Arm GNU Toolchain arm-none-eabi/13.2 Rel1/bin/../lib/gcc/arm-none-eabi/13.2.1/thumb/v7+fp/hard\libg_nano.a(libc_a-writer.o)
 .ARM.attributes
                0x000010dd       0x2d C:/Program Files (x86)/Arm GNU Toolchain arm-none-eabi/13.2 Rel1/bin/../lib/gcc/arm-none-eabi/13.2.1/thumb/v7+fp/hard\libg_nano.a(libm_a-s_nan.o)
 .ARM.attributes
                0x0000110a       0x2d C:/Program Files (x86)/Arm GNU Toolchain arm-none-eabi/13.2 Rel1/bin/../lib/gcc/arm-none-eabi/13.2.1/thumb/v7+fp/hard\libg_nano.a(libc_a-callocr.o)
 .ARM.attributes
                0x00001137       0x2d C:/Program Files (x86)/Arm GNU Toolchain arm-none-eabi/13.2 Rel1/bin/../lib/gcc/arm-none-eabi/13.2.1/thumb/v7+fp/hard\libg_nano.a(libc_a-gdtoa-gethex.o)
 .ARM.attributes
                0x00001164       0x2d C:/Program Files (x86)/Arm GNU Toolchain arm-none-eabi/13.2 Rel1/bin/../lib/gcc/arm-none-eabi/13.2.1/thumb/v7+fp/hard\libg_nano.a(libc_a-gdtoa-hexnan.o)
 .ARM.attributes
                0x00001191       0x2d C:/Program Files (x86)/Arm GNU Toolchain arm-none-eabi/13.2 Rel1/bin/../lib/gcc/arm-none-eabi/13.2.1/thumb/v7+fp/hard\libg_nano.a(libc_a-mbtowc_r.o)
 .ARM.attributes
                0x000011be       0x2d C:/Program Files (x86)/Arm GNU Toolchain arm-none-eabi/13.2 Rel1/bin/../lib/gcc/arm-none-eabi/13.2.1/thumb/v7+fp/hard\libg_nano.a(libc_a-reallocr.o)
 .ARM.attributes
                0x000011eb       0x2d C:/Program Files (x86)/Arm GNU Toolchain arm-none-eabi/13.2 Rel1/bin/../lib/gcc/arm-none-eabi/13.2.1/thumb/v7+fp/hard\libg_nano.a(libc_a-wctomb_r.o)
 .ARM.attributes
                0x00001218       0x2d C:/Program Files (x86)/Arm GNU Toolchain arm-none-eabi/13.2 Rel1/bin/../lib/gcc/arm-none-eabi/13.2.1/thumb/v7+fp/hard\libg_nano.a(libc_a-msizer.o)
 .ARM.attributes
                0x00001245       0x1b C:/Program Files (x86)/Arm GNU Toolchain arm-none-eabi/13.2 Rel1/bin/../lib/gcc/arm-none-eabi/13.2.1/thumb/v7+fp/hard\libgcc.a(_udivsi3.o)
 .ARM.attributes
                0x00001260       0x1b C:/Program Files (x86)/Arm GNU Toolchain arm-none-eabi/13.2 Rel1/bin/../lib/gcc/arm-none-eabi/13.2.1/thumb/v7+fp/hard\libgcc.a(_divsi3.o)
 .ARM.attributes
                0x0000127b       0x1b C:/Program Files (x86)/Arm GNU Toolchain arm-none-eabi/13.2 Rel1/bin/../lib/gcc/arm-none-eabi/13.2.1/thumb/v7+fp/hard\libgcc.a(_arm_addsubdf3.o)
 .ARM.attributes
                0x00001296       0x2d C:/Program Files (x86)/Arm GNU Toolchain arm-none-eabi/13.2 Rel1/bin/../lib/gcc/arm-none-eabi/13.2.1/thumb/v7+fp/hard\libgcc.a(_fixdfdi.o)
 .ARM.attributes
                0x000012c3       0x2d C:/Program Files (x86)/Arm GNU Toolchain arm-none-eabi/13.2 Rel1/bin/../lib/gcc/arm-none-eabi/13.2.1/thumb/v7+fp/hard\libgcc.a(_fixunsdfdi.o)

.debug_frame    0x00000000     0x2ad4
 .debug_frame   0x00000000       0x78 ./src/hal_entry.o
 .debug_frame   0x00000078      0x190 ./src/syscall.o
 .debug_frame   0x00000208       0x20 ./rzt_gen/common_data.o
 .debug_frame   0x00000228       0x20 ./rzt_gen/hal_data.o
 .debug_frame   0x00000248       0x28 ./rzt_gen/main.o
 .debug_frame   0x00000270       0xf0 ./rzt/fsp/src/r_shared_memory/r_shared_memory.o
 .debug_frame   0x00000360      0x21c ./rzt/fsp/src/r_sci_uart/r_sci_uart.o
 .debug_frame   0x0000057c      0x1a0 ./rzt/fsp/src/r_ioport/r_ioport.o
 .debug_frame   0x0000071c       0x80 ./rzt/fsp/src/r_icu_inter_cpu_irq/r_icu_inter_cpu_irq.o
 .debug_frame   0x0000079c      0x1f8 ./rzt/fsp/src/r_gpt/r_gpt.o
 .debug_frame   0x00000994       0x20 ./rzt/fsp/src/bsp/mcu/all/cr/bsp_delay_core.o
 .debug_frame   0x000009b4       0x48 ./rzt/fsp/src/bsp/mcu/all/cr/bsp_irq_core.o
 .debug_frame   0x000009fc      0x11c ./rzt/fsp/src/bsp/mcu/all/bsp_cache.o
 .debug_frame   0x00000b18       0x6c ./rzt/fsp/src/bsp/mcu/all/bsp_clocks.o
 .debug_frame   0x00000b84       0x4c ./rzt/fsp/src/bsp/mcu/all/bsp_delay.o
 .debug_frame   0x00000bd0       0x20 ./rzt/fsp/src/bsp/mcu/all/bsp_irq.o
 .debug_frame   0x00000bf0       0x3c ./rzt/fsp/src/bsp/mcu/all/bsp_register_protection.o
 .debug_frame   0x00000c2c       0xcc ./rzt/fsp/src/bsp/mcu/all/bsp_reset.o
 .debug_frame   0x00000cf8       0x28 ./rzt/fsp/src/bsp/mcu/all/bsp_sbrk.o
 .debug_frame   0x00000d20       0x2c ./rzt/fsp/src/bsp/mcu/all/bsp_semaphore.o
 .debug_frame   0x00000d4c       0x88 ./rzt/fsp/src/bsp/cmsis/Device/RENESAS/Source/cr/startup_core.o
 .debug_frame   0x00000dd4       0x6c ./rzt/fsp/src/bsp/cmsis/Device/RENESAS/Source/cr/system_core.o
 .debug_frame   0x00000e40       0x2c ./rzt/fsp/src/bsp/cmsis/Device/RENESAS/Source/startup.o
 .debug_frame   0x00000e6c      0x150 ./rzt/fsp/src/bsp/cmsis/Device/RENESAS/Source/system.o
 .debug_frame   0x00000fbc      0x17c ./coremark/core_list_join.o
 .debug_frame   0x00001138       0x70 ./coremark/core_main.o
 .debug_frame   0x000011a8      0x1d0 ./coremark/core_matrix.o
 .debug_frame   0x00001378       0x78 ./coremark/core_portme.o
 .debug_frame   0x000013f0       0xb8 ./coremark/core_state.o
 .debug_frame   0x000014a8       0x78 ./coremark/core_util.o
 .debug_frame   0x00001520       0x2c C:/Program Files (x86)/Arm GNU Toolchain arm-none-eabi/13.2 Rel1/bin/../lib/gcc/arm-none-eabi/13.2.1/thumb/v7+fp/hard\libgcc.a(_aeabi_uldivmod.o)
 .debug_frame   0x0000154c       0x34 C:/Program Files (x86)/Arm GNU Toolchain arm-none-eabi/13.2 Rel1/bin/../lib/gcc/arm-none-eabi/13.2.1/thumb/v7+fp/hard\libgcc.a(_udivmoddi4.o)
 .debug_frame   0x00001580       0x40 C:/Program Files (x86)/Arm GNU Toolchain arm-none-eabi/13.2 Rel1/bin/../lib/gcc/arm-none-eabi/13.2.1/thumb/v7+fp/hard\libg_nano.a(libc_a-assert.o)
 .debug_frame   0x000015c0       0x30 C:/Program Files (x86)/Arm GNU Toolchain arm-none-eabi/13.2 Rel1/bin/../lib/gcc/arm-none-eabi/13.2.1/thumb/v7+fp/hard\libg_nano.a(libc_a-malloc.o)
 .debug_frame   0x000015f0       0x50 C:/Program Files (x86)/Arm GNU Toolchain arm-none-eabi/13.2 Rel1/bin/../lib/gcc/arm-none-eabi/13.2.1/thumb/v7+fp/hard\libg_nano.a(libc_a-mallocr.o)
 .debug_frame   0x00001640       0x30 C:/Program Files (x86)/Arm GNU Toolchain arm-none-eabi/13.2 Rel1/bin/../lib/gcc/arm-none-eabi/13.2.1/thumb/v7+fp/hard\libg_nano.a(libc_a-mlock.o)
 .debug_frame   0x00001670       0xa0 C:/Program Files (x86)/Arm GNU Toolchain arm-none-eabi/13.2 Rel1/bin/../lib/gcc/arm-none-eabi/13.2.1/thumb/v7+fp/hard\libg_nano.a(libc_a-nano-vfprintf_float.o)
 .debug_frame   0x00001710       0x64 C:/Program Files (x86)/Arm GNU Toolchain arm-none-eabi/13.2 Rel1/bin/../lib/gcc/arm-none-eabi/13.2.1/thumb/v7+fp/hard\libg_nano.a(libc_a-nano-vfprintf_i.o)
 .debug_frame   0x00001774       0x40 C:/Program Files (x86)/Arm GNU Toolchain arm-none-eabi/13.2 Rel1/bin/../lib/gcc/arm-none-eabi/13.2.1/thumb/v7+fp/hard\libg_nano.a(libc_a-nano-vfscanf_float.o)
 .debug_frame   0x000017b4       0x64 C:/Program Files (x86)/Arm GNU Toolchain arm-none-eabi/13.2 Rel1/bin/../lib/gcc/arm-none-eabi/13.2.1/thumb/v7+fp/hard\libg_nano.a(libc_a-fprintf.o)
 .debug_frame   0x00001818       0x6c C:/Program Files (x86)/Arm GNU Toolchain arm-none-eabi/13.2 Rel1/bin/../lib/gcc/arm-none-eabi/13.2.1/thumb/v7+fp/hard\libg_nano.a(libc_a-printf.o)
 .debug_frame   0x00001884       0x30 C:/Program Files (x86)/Arm GNU Toolchain arm-none-eabi/13.2 Rel1/bin/../lib/gcc/arm-none-eabi/13.2.1/thumb/v7+fp/hard\libg_nano.a(libc_a-putchar.o)
 .debug_frame   0x000018b4       0x3c C:/Program Files (x86)/Arm GNU Toolchain arm-none-eabi/13.2 Rel1/bin/../lib/gcc/arm-none-eabi/13.2.1/thumb/v7+fp/hard\libg_nano.a(libc_a-puts.o)
 .debug_frame   0x000018f0       0x6c C:/Program Files (x86)/Arm GNU Toolchain arm-none-eabi/13.2 Rel1/bin/../lib/gcc/arm-none-eabi/13.2.1/thumb/v7+fp/hard\libg_nano.a(libc_a-sprintf.o)
 .debug_frame   0x0000195c       0x40 C:/Program Files (x86)/Arm GNU Toolchain arm-none-eabi/13.2 Rel1/bin/../lib/gcc/arm-none-eabi/13.2.1/thumb/v7+fp/hard\libg_nano.a(libc_a-wbuf.o)
 .debug_frame   0x0000199c       0x2c C:/Program Files (x86)/Arm GNU Toolchain arm-none-eabi/13.2 Rel1/bin/../lib/gcc/arm-none-eabi/13.2.1/thumb/v7+fp/hard\libg_nano.a(libc_a-wsetup.o)
 .debug_frame   0x000019c8       0x20 C:/Program Files (x86)/Arm GNU Toolchain arm-none-eabi/13.2 Rel1/bin/../lib/gcc/arm-none-eabi/13.2.1/thumb/v7+fp/hard\libg_nano.a(libc_a-memset.o)
 .debug_frame   0x000019e8       0x28 C:/Program Files (x86)/Arm GNU Toolchain arm-none-eabi/13.2 Rel1/bin/../lib/gcc/arm-none-eabi/13.2.1/thumb/v7+fp/hard\libg_nano.a(libc_a-clock.o)
 .debug_frame   0x00001a10       0x40 C:/Program Files (x86)/Arm GNU Toolchain arm-none-eabi/13.2 Rel1/bin/../lib/gcc/arm-none-eabi/13.2.1/thumb/v7+fp/hard\libg_nano.a(libc_a-localeconv.o)
 .debug_frame   0x00001a50       0x2c C:/Program Files (x86)/Arm GNU Toolchain arm-none-eabi/13.2 Rel1/bin/../lib/gcc/arm-none-eabi/13.2.1/thumb/v7+fp/hard\libg_nano.a(libc_a-sbrkr.o)
 .debug_frame   0x00001a7c       0x20 C:/Program Files (x86)/Arm GNU Toolchain arm-none-eabi/13.2 Rel1/bin/../lib/gcc/arm-none-eabi/13.2.1/thumb/v7+fp/hard\libg_nano.a(libc_a-timesr.o)
 .debug_frame   0x00001a9c       0x20 C:/Program Files (x86)/Arm GNU Toolchain arm-none-eabi/13.2 Rel1/bin/../lib/gcc/arm-none-eabi/13.2.1/thumb/v7+fp/hard\libg_nano.a(libc_a-errno.o)
 .debug_frame   0x00001abc       0xb0 C:/Program Files (x86)/Arm GNU Toolchain arm-none-eabi/13.2 Rel1/bin/../lib/gcc/arm-none-eabi/13.2.1/thumb/v7+fp/hard\libg_nano.a(libc_a-lock.o)
 .debug_frame   0x00001b6c       0x28 C:/Program Files (x86)/Arm GNU Toolchain arm-none-eabi/13.2 Rel1/bin/../lib/gcc/arm-none-eabi/13.2.1/thumb/v7+fp/hard\libg_nano.a(libc_a-memchr-stub.o)
 .debug_frame   0x00001b94       0x28 C:/Program Files (x86)/Arm GNU Toolchain arm-none-eabi/13.2 Rel1/bin/../lib/gcc/arm-none-eabi/13.2.1/thumb/v7+fp/hard\libg_nano.a(libc_a-memcpy-stub.o)
 .debug_frame   0x00001bbc       0x20 C:/Program Files (x86)/Arm GNU Toolchain arm-none-eabi/13.2 Rel1/bin/../lib/gcc/arm-none-eabi/13.2.1/thumb/v7+fp/hard\libg_nano.a(libm_a-sf_nan.o)
 .debug_frame   0x00001bdc       0x28 C:/Program Files (x86)/Arm GNU Toolchain arm-none-eabi/13.2 Rel1/bin/../lib/gcc/arm-none-eabi/13.2.1/thumb/v7+fp/hard\libg_nano.a(libc_a-abort.o)
 .debug_frame   0x00001c04       0x80 C:/Program Files (x86)/Arm GNU Toolchain arm-none-eabi/13.2 Rel1/bin/../lib/gcc/arm-none-eabi/13.2.1/thumb/v7+fp/hard\libg_nano.a(libc_a-dtoa.o)
 .debug_frame   0x00001c84       0x38 C:/Program Files (x86)/Arm GNU Toolchain arm-none-eabi/13.2 Rel1/bin/../lib/gcc/arm-none-eabi/13.2.1/thumb/v7+fp/hard\libg_nano.a(libc_a-freer.o)
 .debug_frame   0x00001cbc      0x250 C:/Program Files (x86)/Arm GNU Toolchain arm-none-eabi/13.2 Rel1/bin/../lib/gcc/arm-none-eabi/13.2.1/thumb/v7+fp/hard\libg_nano.a(libc_a-mprec.o)
 .debug_frame   0x00001f0c      0x104 C:/Program Files (x86)/Arm GNU Toolchain arm-none-eabi/13.2 Rel1/bin/../lib/gcc/arm-none-eabi/13.2.1/thumb/v7+fp/hard\libg_nano.a(libc_a-strtod.o)
 .debug_frame   0x00002010       0x68 C:/Program Files (x86)/Arm GNU Toolchain arm-none-eabi/13.2 Rel1/bin/../lib/gcc/arm-none-eabi/13.2.1/thumb/v7+fp/hard\libg_nano.a(libc_a-strtol.o)
 .debug_frame   0x00002078       0x90 C:/Program Files (x86)/Arm GNU Toolchain arm-none-eabi/13.2 Rel1/bin/../lib/gcc/arm-none-eabi/13.2.1/thumb/v7+fp/hard\libg_nano.a(libc_a-nano-svfprintf.o)
 .debug_frame   0x00002108       0xa8 C:/Program Files (x86)/Arm GNU Toolchain arm-none-eabi/13.2 Rel1/bin/../lib/gcc/arm-none-eabi/13.2.1/thumb/v7+fp/hard\libg_nano.a(libc_a-nano-vfprintf.o)
 .debug_frame   0x000021b0       0x5c C:/Program Files (x86)/Arm GNU Toolchain arm-none-eabi/13.2 Rel1/bin/../lib/gcc/arm-none-eabi/13.2.1/thumb/v7+fp/hard\libg_nano.a(libc_a-fflush.o)
 .debug_frame   0x0000220c      0x144 C:/Program Files (x86)/Arm GNU Toolchain arm-none-eabi/13.2 Rel1/bin/../lib/gcc/arm-none-eabi/13.2.1/thumb/v7+fp/hard\libg_nano.a(libc_a-findfp.o)
 .debug_frame   0x00002350       0x34 C:/Program Files (x86)/Arm GNU Toolchain arm-none-eabi/13.2 Rel1/bin/../lib/gcc/arm-none-eabi/13.2.1/thumb/v7+fp/hard\libg_nano.a(libc_a-fwalk.o)
 .debug_frame   0x00002384       0x58 C:/Program Files (x86)/Arm GNU Toolchain arm-none-eabi/13.2 Rel1/bin/../lib/gcc/arm-none-eabi/13.2.1/thumb/v7+fp/hard\libg_nano.a(libc_a-makebuf.o)
 .debug_frame   0x000023dc       0x3c C:/Program Files (x86)/Arm GNU Toolchain arm-none-eabi/13.2 Rel1/bin/../lib/gcc/arm-none-eabi/13.2.1/thumb/v7+fp/hard\libg_nano.a(libc_a-putc.o)
 .debug_frame   0x00002418       0x88 C:/Program Files (x86)/Arm GNU Toolchain arm-none-eabi/13.2 Rel1/bin/../lib/gcc/arm-none-eabi/13.2.1/thumb/v7+fp/hard\libg_nano.a(libc_a-stdio.o)
 .debug_frame   0x000024a0       0x28 C:/Program Files (x86)/Arm GNU Toolchain arm-none-eabi/13.2 Rel1/bin/../lib/gcc/arm-none-eabi/13.2.1/thumb/v7+fp/hard\libg_nano.a(libc_a-memmove.o)
 .debug_frame   0x000024c8       0x28 C:/Program Files (x86)/Arm GNU Toolchain arm-none-eabi/13.2 Rel1/bin/../lib/gcc/arm-none-eabi/13.2.1/thumb/v7+fp/hard\libg_nano.a(libc_a-strncmp.o)
 .debug_frame   0x000024f0       0xcc C:/Program Files (x86)/Arm GNU Toolchain arm-none-eabi/13.2 Rel1/bin/../lib/gcc/arm-none-eabi/13.2.1/thumb/v7+fp/hard\libg_nano.a(libc_a-signal.o)
 .debug_frame   0x000025bc       0x48 C:/Program Files (x86)/Arm GNU Toolchain arm-none-eabi/13.2 Rel1/bin/../lib/gcc/arm-none-eabi/13.2.1/thumb/v7+fp/hard\libg_nano.a(libc_a-locale.o)
 .debug_frame   0x00002604       0x2c C:/Program Files (x86)/Arm GNU Toolchain arm-none-eabi/13.2 Rel1/bin/../lib/gcc/arm-none-eabi/13.2.1/thumb/v7+fp/hard\libg_nano.a(libc_a-closer.o)
 .debug_frame   0x00002630       0x38 C:/Program Files (x86)/Arm GNU Toolchain arm-none-eabi/13.2 Rel1/bin/../lib/gcc/arm-none-eabi/13.2.1/thumb/v7+fp/hard\libg_nano.a(libc_a-reent.o)
 .debug_frame   0x00002668       0x2c C:/Program Files (x86)/Arm GNU Toolchain arm-none-eabi/13.2 Rel1/bin/../lib/gcc/arm-none-eabi/13.2.1/thumb/v7+fp/hard\libg_nano.a(libc_a-fstatr.o)
 .debug_frame   0x00002694       0x2c C:/Program Files (x86)/Arm GNU Toolchain arm-none-eabi/13.2 Rel1/bin/../lib/gcc/arm-none-eabi/13.2.1/thumb/v7+fp/hard\libg_nano.a(libc_a-isattyr.o)
 .debug_frame   0x000026c0       0x2c C:/Program Files (x86)/Arm GNU Toolchain arm-none-eabi/13.2 Rel1/bin/../lib/gcc/arm-none-eabi/13.2.1/thumb/v7+fp/hard\libg_nano.a(libc_a-lseekr.o)
 .debug_frame   0x000026ec       0x2c C:/Program Files (x86)/Arm GNU Toolchain arm-none-eabi/13.2 Rel1/bin/../lib/gcc/arm-none-eabi/13.2.1/thumb/v7+fp/hard\libg_nano.a(libc_a-readr.o)
 .debug_frame   0x00002718       0x3c C:/Program Files (x86)/Arm GNU Toolchain arm-none-eabi/13.2 Rel1/bin/../lib/gcc/arm-none-eabi/13.2.1/thumb/v7+fp/hard\libg_nano.a(libc_a-signalr.o)
 .debug_frame   0x00002754       0x2c C:/Program Files (x86)/Arm GNU Toolchain arm-none-eabi/13.2 Rel1/bin/../lib/gcc/arm-none-eabi/13.2.1/thumb/v7+fp/hard\libg_nano.a(libc_a-writer.o)
 .debug_frame   0x00002780       0x20 C:/Program Files (x86)/Arm GNU Toolchain arm-none-eabi/13.2 Rel1/bin/../lib/gcc/arm-none-eabi/13.2.1/thumb/v7+fp/hard\libg_nano.a(libm_a-s_nan.o)
 .debug_frame   0x000027a0       0x2c C:/Program Files (x86)/Arm GNU Toolchain arm-none-eabi/13.2 Rel1/bin/../lib/gcc/arm-none-eabi/13.2.1/thumb/v7+fp/hard\libg_nano.a(libc_a-callocr.o)
 .debug_frame   0x000027cc       0x74 C:/Program Files (x86)/Arm GNU Toolchain arm-none-eabi/13.2 Rel1/bin/../lib/gcc/arm-none-eabi/13.2.1/thumb/v7+fp/hard\libg_nano.a(libc_a-gdtoa-gethex.o)
 .debug_frame   0x00002840       0x78 C:/Program Files (x86)/Arm GNU Toolchain arm-none-eabi/13.2 Rel1/bin/../lib/gcc/arm-none-eabi/13.2.1/thumb/v7+fp/hard\libg_nano.a(libc_a-gdtoa-hexnan.o)
 .debug_frame   0x000028b8       0x48 C:/Program Files (x86)/Arm GNU Toolchain arm-none-eabi/13.2 Rel1/bin/../lib/gcc/arm-none-eabi/13.2.1/thumb/v7+fp/hard\libg_nano.a(libc_a-mbtowc_r.o)
 .debug_frame   0x00002900       0x3c C:/Program Files (x86)/Arm GNU Toolchain arm-none-eabi/13.2 Rel1/bin/../lib/gcc/arm-none-eabi/13.2.1/thumb/v7+fp/hard\libg_nano.a(libc_a-reallocr.o)
 .debug_frame   0x0000293c       0x3c C:/Program Files (x86)/Arm GNU Toolchain arm-none-eabi/13.2 Rel1/bin/../lib/gcc/arm-none-eabi/13.2.1/thumb/v7+fp/hard\libg_nano.a(libc_a-wctomb_r.o)
 .debug_frame   0x00002978       0x20 C:/Program Files (x86)/Arm GNU Toolchain arm-none-eabi/13.2 Rel1/bin/../lib/gcc/arm-none-eabi/13.2.1/thumb/v7+fp/hard\libg_nano.a(libc_a-msizer.o)
 .debug_frame   0x00002998       0x20 C:/Program Files (x86)/Arm GNU Toolchain arm-none-eabi/13.2 Rel1/bin/../lib/gcc/arm-none-eabi/13.2.1/thumb/v7+fp/hard\libgcc.a(_udivsi3.o)
 .debug_frame   0x000029b8       0x20 C:/Program Files (x86)/Arm GNU Toolchain arm-none-eabi/13.2 Rel1/bin/../lib/gcc/arm-none-eabi/13.2.1/thumb/v7+fp/hard\libgcc.a(_divsi3.o)
 .debug_frame   0x000029d8       0xac C:/Program Files (x86)/Arm GNU Toolchain arm-none-eabi/13.2 Rel1/bin/../lib/gcc/arm-none-eabi/13.2.1/thumb/v7+fp/hard\libgcc.a(_arm_addsubdf3.o)
 .debug_frame   0x00002a84       0x30 C:/Program Files (x86)/Arm GNU Toolchain arm-none-eabi/13.2 Rel1/bin/../lib/gcc/arm-none-eabi/13.2.1/thumb/v7+fp/hard\libgcc.a(_fixdfdi.o)
 .debug_frame   0x00002ab4       0x20 C:/Program Files (x86)/Arm GNU Toolchain arm-none-eabi/13.2 Rel1/bin/../lib/gcc/arm-none-eabi/13.2.1/thumb/v7+fp/hard\libgcc.a(_fixunsdfdi.o)

.debug_line_str
                0x00000000      0x1c7
 .debug_line_str
                0x00000000      0x1c7 C:/Program Files (x86)/Arm GNU Toolchain arm-none-eabi/13.2 Rel1/bin/../lib/gcc/arm-none-eabi/13.2.1/thumb/v7+fp/hard\libgcc.a(_aeabi_uldivmod.o)
                                 0xc6 (size before relaxing)
 .debug_line_str
                0x000001c7       0xca C:/Program Files (x86)/Arm GNU Toolchain arm-none-eabi/13.2 Rel1/bin/../lib/gcc/arm-none-eabi/13.2.1/thumb/v7+fp/hard\libgcc.a(_dvmd_tls.o)
 .debug_line_str
                0x000001c7       0xe8 C:/Program Files (x86)/Arm GNU Toolchain arm-none-eabi/13.2 Rel1/bin/../lib/gcc/arm-none-eabi/13.2.1/thumb/v7+fp/hard\libg_nano.a(libc_a-strlen.o)
 .debug_line_str
                0x000001c7       0xca C:/Program Files (x86)/Arm GNU Toolchain arm-none-eabi/13.2 Rel1/bin/../lib/gcc/arm-none-eabi/13.2.1/thumb/v7+fp/hard\libgcc.a(_udivsi3.o)
 .debug_line_str
                0x000001c7       0xca C:/Program Files (x86)/Arm GNU Toolchain arm-none-eabi/13.2 Rel1/bin/../lib/gcc/arm-none-eabi/13.2.1/thumb/v7+fp/hard\libgcc.a(_divsi3.o)
 .debug_line_str
                0x000001c7       0xcb C:/Program Files (x86)/Arm GNU Toolchain arm-none-eabi/13.2 Rel1/bin/../lib/gcc/arm-none-eabi/13.2.1/thumb/v7+fp/hard\libgcc.a(_arm_addsubdf3.o)
